	.section	__TEXT,__text,regular,pure_instructions
	.build_version macos, 10, 15	sdk_version 10, 15, 6
	.globl	__Z21get_project_structureRKNSt3__112basic_stringIcNS_11char_traitsIcEENS_9allocatorIcEEEE ## -- Begin function _Z21get_project_structureRKNSt3__112basic_stringIcNS_11char_traitsIcEENS_9allocatorIcEEEE
	.p2align	4, 0x90
__Z21get_project_structureRKNSt3__112basic_stringIcNS_11char_traitsIcEENS_9allocatorIcEEEE: ## @_Z21get_project_structureRKNSt3__112basic_stringIcNS_11char_traitsIcEENS_9allocatorIcEEEE
Lfunc_begin0:
	.cfi_startproc
	.cfi_personality 155, ___gxx_personality_v0
	.cfi_lsda 16, Lexception0
## %bb.0:
	pushq	%rbp
	.cfi_def_cfa_offset 16
	.cfi_offset %rbp, -16
	movq	%rsp, %rbp
	.cfi_def_cfa_register %rbp
	subq	$1056, %rsp             ## imm = 0x420
	movq	%rdi, %rax
	movq	___stack_chk_guard@GOTPCREL(%rip), %rcx
	movq	(%rcx), %rcx
	movq	%rcx, -8(%rbp)
	movq	%rdi, -592(%rbp)
	movq	%rsi, -600(%rbp)
	movq	%rdi, %rcx
	movq	-600(%rbp), %rsi
	movq	%rdi, -704(%rbp)        ## 8-byte Spill
	movq	%rax, -712(%rbp)        ## 8-byte Spill
	movq	%rcx, -720(%rbp)        ## 8-byte Spill
	callq	__ZNSt3__112basic_stringIcNS_11char_traitsIcEENS_9allocatorIcEEEC1ERKS5_
	movb	$1, -693(%rbp)
	movq	-704(%rbp), %rax        ## 8-byte Reload
	addq	$24, %rax
	leaq	-392(%rbp), %rcx
	movb	$1, -692(%rbp)
	movq	%rcx, -624(%rbp)
Ltmp0:
	leaq	L_.str(%rip), %rsi
	movq	%rcx, %rdi
	movq	%rax, -728(%rbp)        ## 8-byte Spill
	movq	%rcx, -736(%rbp)        ## 8-byte Spill
	callq	__ZNSt3__112basic_stringIcNS_11char_traitsIcEENS_9allocatorIcEEEC1IDnEEPKc
Ltmp1:
	jmp	LBB0_1
LBB0_1:
	movq	-736(%rbp), %rax        ## 8-byte Reload
	addq	$24, %rax
	movq	%rax, %rdi
	callq	__ZNSt3__16vectorI13DirectoryNodeNS_9allocatorIS1_EEEC1Ev
	movq	-736(%rbp), %rax        ## 8-byte Reload
	addq	$48, %rax
	movq	%rax, -624(%rbp)
Ltmp2:
	leaq	L_.str.1(%rip), %rsi
	movq	%rax, %rdi
	movq	%rax, -744(%rbp)        ## 8-byte Spill
	callq	__ZNSt3__112basic_stringIcNS_11char_traitsIcEENS_9allocatorIcEEEC1IDnEEPKc
Ltmp3:
	jmp	LBB0_2
LBB0_2:
	movq	-744(%rbp), %rax        ## 8-byte Reload
	addq	$24, %rax
	movq	%rax, %rdi
	callq	__ZNSt3__16vectorI13DirectoryNodeNS_9allocatorIS1_EEEC1Ev
	movq	-744(%rbp), %rax        ## 8-byte Reload
	addq	$48, %rax
	movq	%rax, -624(%rbp)
Ltmp4:
	leaq	L_.str.2(%rip), %rsi
	movq	%rax, %rdi
	movq	%rax, -752(%rbp)        ## 8-byte Spill
	callq	__ZNSt3__112basic_stringIcNS_11char_traitsIcEENS_9allocatorIcEEEC1IDnEEPKc
Ltmp5:
	jmp	LBB0_3
LBB0_3:
	movq	-752(%rbp), %rax        ## 8-byte Reload
	addq	$24, %rax
	movq	%rax, %rdi
	callq	__ZNSt3__16vectorI13DirectoryNodeNS_9allocatorIS1_EEEC1Ev
	movq	-752(%rbp), %rax        ## 8-byte Reload
	addq	$48, %rax
	movq	%rax, -624(%rbp)
Ltmp6:
	leaq	L_.str.3(%rip), %rsi
	movq	%rax, %rdi
	movq	%rax, -760(%rbp)        ## 8-byte Spill
	callq	__ZNSt3__112basic_stringIcNS_11char_traitsIcEENS_9allocatorIcEEEC1IDnEEPKc
Ltmp7:
	jmp	LBB0_4
LBB0_4:
	movq	-760(%rbp), %rax        ## 8-byte Reload
	addq	$24, %rax
	movq	%rax, %rdi
	callq	__ZNSt3__16vectorI13DirectoryNodeNS_9allocatorIS1_EEEC1Ev
	movq	-760(%rbp), %rax        ## 8-byte Reload
	addq	$48, %rax
	movq	%rax, -624(%rbp)
Ltmp8:
	leaq	L_.str.4(%rip), %rsi
	movq	%rax, %rdi
	movq	%rax, -768(%rbp)        ## 8-byte Spill
	callq	__ZNSt3__112basic_stringIcNS_11char_traitsIcEENS_9allocatorIcEEEC1IDnEEPKc
Ltmp9:
	jmp	LBB0_5
LBB0_5:
	movq	-768(%rbp), %rax        ## 8-byte Reload
	addq	$24, %rax
	movq	%rax, %rdi
	callq	__ZNSt3__16vectorI13DirectoryNodeNS_9allocatorIS1_EEEC1Ev
	movq	-768(%rbp), %rax        ## 8-byte Reload
	addq	$48, %rax
	movq	%rax, %rcx
	movq	%rax, -624(%rbp)
Ltmp10:
	leaq	L_.str.5(%rip), %rsi
	movq	%rax, %rdi
	movq	%rax, -776(%rbp)        ## 8-byte Spill
	movq	%rcx, -784(%rbp)        ## 8-byte Spill
	callq	__ZNSt3__112basic_stringIcNS_11char_traitsIcEENS_9allocatorIcEEEC1IDnEEPKc
Ltmp11:
	jmp	LBB0_6
LBB0_6:
	movb	$1, -691(%rbp)
	movq	-784(%rbp), %rax        ## 8-byte Reload
	addq	$24, %rax
	leaq	-488(%rbp), %rcx
	movq	%rcx, %rdx
	movb	$1, -690(%rbp)
	movq	%rcx, -664(%rbp)
Ltmp13:
	leaq	L_.str.6(%rip), %rsi
	movq	%rcx, %rdi
	movq	%rax, -792(%rbp)        ## 8-byte Spill
	movq	%rcx, -800(%rbp)        ## 8-byte Spill
	movq	%rdx, -808(%rbp)        ## 8-byte Spill
	callq	__ZNSt3__112basic_stringIcNS_11char_traitsIcEENS_9allocatorIcEEEC1IDnEEPKc
Ltmp14:
	jmp	LBB0_7
LBB0_7:
	movb	$1, -689(%rbp)
	movq	-808(%rbp), %rax        ## 8-byte Reload
	addq	$24, %rax
	leaq	-584(%rbp), %rcx
	movq	%rcx, -688(%rbp)
Ltmp16:
	leaq	L_.str.7(%rip), %rsi
	movq	%rcx, %rdi
	movq	%rax, -816(%rbp)        ## 8-byte Spill
	movq	%rcx, -824(%rbp)        ## 8-byte Spill
	callq	__ZNSt3__112basic_stringIcNS_11char_traitsIcEENS_9allocatorIcEEEC1IDnEEPKc
Ltmp17:
	jmp	LBB0_8
LBB0_8:
	movq	-824(%rbp), %rax        ## 8-byte Reload
	addq	$24, %rax
	movq	%rax, %rdi
	callq	__ZNSt3__16vectorI13DirectoryNodeNS_9allocatorIS1_EEEC1Ev
	movq	-824(%rbp), %rax        ## 8-byte Reload
	addq	$48, %rax
	movq	%rax, -688(%rbp)
Ltmp18:
	leaq	L_.str.8(%rip), %rsi
	movq	%rax, %rdi
	movq	%rax, -832(%rbp)        ## 8-byte Spill
	callq	__ZNSt3__112basic_stringIcNS_11char_traitsIcEENS_9allocatorIcEEEC1IDnEEPKc
Ltmp19:
	jmp	LBB0_9
LBB0_9:
	movq	-832(%rbp), %rax        ## 8-byte Reload
	addq	$24, %rax
	movq	%rax, %rdi
	callq	__ZNSt3__16vectorI13DirectoryNodeNS_9allocatorIS1_EEEC1Ev
	leaq	-584(%rbp), %rax
	movq	%rax, -680(%rbp)
	movq	$2, -672(%rbp)
	movq	-680(%rbp), %rsi
	movq	-672(%rbp), %rdx
Ltmp21:
	movq	-816(%rbp), %rdi        ## 8-byte Reload
	callq	__ZNSt3__16vectorI13DirectoryNodeNS_9allocatorIS1_EEEC1ESt16initializer_listIS1_E
Ltmp22:
	jmp	LBB0_10
LBB0_10:
	movb	$0, -689(%rbp)
	movq	-808(%rbp), %rax        ## 8-byte Reload
	addq	$48, %rax
	movq	%rax, -664(%rbp)
Ltmp23:
	leaq	L_.str.9(%rip), %rsi
	movq	%rax, %rdi
	movq	%rax, -840(%rbp)        ## 8-byte Spill
	callq	__ZNSt3__112basic_stringIcNS_11char_traitsIcEENS_9allocatorIcEEEC1IDnEEPKc
Ltmp24:
	jmp	LBB0_11
LBB0_11:
	movq	-840(%rbp), %rax        ## 8-byte Reload
	addq	$24, %rax
	movq	%rax, %rdi
	callq	__ZNSt3__16vectorI13DirectoryNodeNS_9allocatorIS1_EEEC1Ev
	movb	$0, -690(%rbp)
	leaq	-488(%rbp), %rax
	movq	%rax, -656(%rbp)
	movq	$2, -648(%rbp)
	movq	-656(%rbp), %rsi
	movq	-648(%rbp), %rdx
Ltmp26:
	movq	-792(%rbp), %rdi        ## 8-byte Reload
	callq	__ZNSt3__16vectorI13DirectoryNodeNS_9allocatorIS1_EEEC1ESt16initializer_listIS1_E
Ltmp27:
	jmp	LBB0_12
LBB0_12:
	movb	$0, -691(%rbp)
	movq	-784(%rbp), %rax        ## 8-byte Reload
	addq	$48, %rax
	movq	%rax, -624(%rbp)
Ltmp28:
	leaq	L_.str.10(%rip), %rsi
	movq	%rax, %rdi
	movq	%rax, -848(%rbp)        ## 8-byte Spill
	callq	__ZNSt3__112basic_stringIcNS_11char_traitsIcEENS_9allocatorIcEEEC1IDnEEPKc
Ltmp29:
	jmp	LBB0_13
LBB0_13:
	movq	-848(%rbp), %rax        ## 8-byte Reload
	addq	$24, %rax
	movq	%rax, %rdi
	callq	__ZNSt3__16vectorI13DirectoryNodeNS_9allocatorIS1_EEEC1Ev
	movq	-848(%rbp), %rax        ## 8-byte Reload
	addq	$48, %rax
	movq	%rax, -624(%rbp)
Ltmp30:
	leaq	L_.str.11(%rip), %rsi
	movq	%rax, %rdi
	movq	%rax, -856(%rbp)        ## 8-byte Spill
	callq	__ZNSt3__112basic_stringIcNS_11char_traitsIcEENS_9allocatorIcEEEC1IDnEEPKc
Ltmp31:
	jmp	LBB0_14
LBB0_14:
	movq	-856(%rbp), %rax        ## 8-byte Reload
	addq	$24, %rax
	movq	%rax, %rdi
	callq	__ZNSt3__16vectorI13DirectoryNodeNS_9allocatorIS1_EEEC1Ev
	movb	$0, -692(%rbp)
	leaq	-392(%rbp), %rax
	movq	%rax, -616(%rbp)
	movq	$8, -608(%rbp)
	movq	-616(%rbp), %rsi
	movq	-608(%rbp), %rdx
Ltmp33:
	movq	-728(%rbp), %rdi        ## 8-byte Reload
	callq	__ZNSt3__16vectorI13DirectoryNodeNS_9allocatorIS1_EEEC1ESt16initializer_listIS1_E
Ltmp34:
	jmp	LBB0_15
LBB0_15:
	leaq	-392(%rbp), %rax
	movb	$0, -693(%rbp)
	movq	%rax, %rcx
	addq	$384, %rcx              ## imm = 0x180
	movq	%rax, -864(%rbp)        ## 8-byte Spill
	movq	%rcx, -872(%rbp)        ## 8-byte Spill
LBB0_16:                                ## =>This Inner Loop Header: Depth=1
	movq	-872(%rbp), %rax        ## 8-byte Reload
	addq	$-48, %rax
	movq	%rax, %rdi
	movq	%rax, -880(%rbp)        ## 8-byte Spill
	callq	__ZN13DirectoryNodeD1Ev
	movq	-880(%rbp), %rax        ## 8-byte Reload
	movq	-864(%rbp), %rcx        ## 8-byte Reload
	cmpq	%rcx, %rax
	movq	%rax, -872(%rbp)        ## 8-byte Spill
	jne	LBB0_16
## %bb.17:
	leaq	-488(%rbp), %rax
	movq	%rax, %rcx
	addq	$96, %rcx
	movq	%rax, -888(%rbp)        ## 8-byte Spill
	movq	%rcx, -896(%rbp)        ## 8-byte Spill
LBB0_18:                                ## =>This Inner Loop Header: Depth=1
	movq	-896(%rbp), %rax        ## 8-byte Reload
	addq	$-48, %rax
	movq	%rax, %rdi
	movq	%rax, -904(%rbp)        ## 8-byte Spill
	callq	__ZN13DirectoryNodeD1Ev
	movq	-904(%rbp), %rax        ## 8-byte Reload
	movq	-888(%rbp), %rcx        ## 8-byte Reload
	cmpq	%rcx, %rax
	movq	%rax, -896(%rbp)        ## 8-byte Spill
	jne	LBB0_18
## %bb.19:
	leaq	-584(%rbp), %rax
	movq	%rax, %rcx
	addq	$96, %rcx
	movq	%rax, -912(%rbp)        ## 8-byte Spill
	movq	%rcx, -920(%rbp)        ## 8-byte Spill
LBB0_20:                                ## =>This Inner Loop Header: Depth=1
	movq	-920(%rbp), %rax        ## 8-byte Reload
	addq	$-48, %rax
	movq	%rax, %rdi
	movq	%rax, -928(%rbp)        ## 8-byte Spill
	callq	__ZN13DirectoryNodeD1Ev
	movq	-928(%rbp), %rax        ## 8-byte Reload
	movq	-912(%rbp), %rcx        ## 8-byte Reload
	cmpq	%rcx, %rax
	movq	%rax, -920(%rbp)        ## 8-byte Spill
	jne	LBB0_20
## %bb.21:
	movq	___stack_chk_guard@GOTPCREL(%rip), %rax
	movq	(%rax), %rax
	movq	-8(%rbp), %rcx
	cmpq	%rcx, %rax
	jne	LBB0_57
## %bb.22:
	movq	-712(%rbp), %rax        ## 8-byte Reload
	addq	$1056, %rsp             ## imm = 0x420
	popq	%rbp
	retq
LBB0_23:
Ltmp12:
                                        ## kill: def $edx killed $edx killed $rdx
	movq	%rax, -632(%rbp)
	movl	%edx, -636(%rbp)
	jmp	LBB0_49
LBB0_24:
Ltmp15:
                                        ## kill: def $edx killed $edx killed $rdx
	movq	%rax, -632(%rbp)
	movl	%edx, -636(%rbp)
	jmp	LBB0_42
LBB0_25:
Ltmp20:
                                        ## kill: def $edx killed $edx killed $rdx
	movq	%rax, -632(%rbp)
	movl	%edx, -636(%rbp)
	movq	-688(%rbp), %rax
	movq	-824(%rbp), %rcx        ## 8-byte Reload
	cmpq	%rax, %rcx
	movq	%rax, -936(%rbp)        ## 8-byte Spill
	je	LBB0_27
LBB0_26:                                ## =>This Inner Loop Header: Depth=1
	movq	-936(%rbp), %rax        ## 8-byte Reload
	addq	$-48, %rax
	movq	%rax, %rdi
	movq	%rax, -944(%rbp)        ## 8-byte Spill
	callq	__ZN13DirectoryNodeD1Ev
	movq	-944(%rbp), %rax        ## 8-byte Reload
	movq	-824(%rbp), %rcx        ## 8-byte Reload
	cmpq	%rcx, %rax
	movq	%rax, -936(%rbp)        ## 8-byte Spill
	jne	LBB0_26
LBB0_27:
	jmp	LBB0_39
LBB0_28:
Ltmp25:
                                        ## kill: def $edx killed $edx killed $rdx
	movq	%rax, -632(%rbp)
	movl	%edx, -636(%rbp)
	jmp	LBB0_36
LBB0_29:
Ltmp32:
                                        ## kill: def $edx killed $edx killed $rdx
	movq	%rax, -632(%rbp)
	movl	%edx, -636(%rbp)
	jmp	LBB0_33
LBB0_30:
Ltmp35:
	leaq	-392(%rbp), %rcx
                                        ## kill: def $edx killed $edx killed $rdx
	movq	%rax, -632(%rbp)
	movl	%edx, -636(%rbp)
	movq	%rcx, %rax
	addq	$384, %rax              ## imm = 0x180
	movq	%rcx, -952(%rbp)        ## 8-byte Spill
	movq	%rax, -960(%rbp)        ## 8-byte Spill
LBB0_31:                                ## =>This Inner Loop Header: Depth=1
	movq	-960(%rbp), %rax        ## 8-byte Reload
	addq	$-48, %rax
	movq	%rax, %rdi
	movq	%rax, -968(%rbp)        ## 8-byte Spill
	callq	__ZN13DirectoryNodeD1Ev
	movq	-968(%rbp), %rax        ## 8-byte Reload
	movq	-952(%rbp), %rcx        ## 8-byte Reload
	cmpq	%rcx, %rax
	movq	%rax, -960(%rbp)        ## 8-byte Spill
	jne	LBB0_31
## %bb.32:
	jmp	LBB0_33
LBB0_33:
	leaq	-488(%rbp), %rax
	movq	%rax, %rcx
	addq	$96, %rcx
	movq	%rax, -976(%rbp)        ## 8-byte Spill
	movq	%rcx, -984(%rbp)        ## 8-byte Spill
LBB0_34:                                ## =>This Inner Loop Header: Depth=1
	movq	-984(%rbp), %rax        ## 8-byte Reload
	addq	$-48, %rax
	movq	%rax, %rdi
	movq	%rax, -992(%rbp)        ## 8-byte Spill
	callq	__ZN13DirectoryNodeD1Ev
	movq	-992(%rbp), %rax        ## 8-byte Reload
	movq	-976(%rbp), %rcx        ## 8-byte Reload
	cmpq	%rcx, %rax
	movq	%rax, -984(%rbp)        ## 8-byte Spill
	jne	LBB0_34
## %bb.35:
	jmp	LBB0_36
LBB0_36:
	leaq	-584(%rbp), %rax
	movq	%rax, %rcx
	addq	$96, %rcx
	movq	%rax, -1000(%rbp)       ## 8-byte Spill
	movq	%rcx, -1008(%rbp)       ## 8-byte Spill
LBB0_37:                                ## =>This Inner Loop Header: Depth=1
	movq	-1008(%rbp), %rax       ## 8-byte Reload
	addq	$-48, %rax
	movq	%rax, %rdi
	movq	%rax, -1016(%rbp)       ## 8-byte Spill
	callq	__ZN13DirectoryNodeD1Ev
	movq	-1016(%rbp), %rax       ## 8-byte Reload
	movq	-1000(%rbp), %rcx       ## 8-byte Reload
	cmpq	%rcx, %rax
	movq	%rax, -1008(%rbp)       ## 8-byte Spill
	jne	LBB0_37
## %bb.38:
	jmp	LBB0_39
LBB0_39:
	testb	$1, -689(%rbp)
	jne	LBB0_40
	jmp	LBB0_41
LBB0_40:
	movq	-800(%rbp), %rdi        ## 8-byte Reload
	callq	__ZNSt3__112basic_stringIcNS_11char_traitsIcEENS_9allocatorIcEEED1Ev
LBB0_41:
	jmp	LBB0_42
LBB0_42:
	testb	$1, -690(%rbp)
	jne	LBB0_43
	jmp	LBB0_46
LBB0_43:
	movq	-664(%rbp), %rax
	movq	-808(%rbp), %rcx        ## 8-byte Reload
	cmpq	%rax, %rcx
	movq	%rax, -1024(%rbp)       ## 8-byte Spill
	je	LBB0_45
LBB0_44:                                ## =>This Inner Loop Header: Depth=1
	movq	-1024(%rbp), %rax       ## 8-byte Reload
	addq	$-48, %rax
	movq	%rax, %rdi
	movq	%rax, -1032(%rbp)       ## 8-byte Spill
	callq	__ZN13DirectoryNodeD1Ev
	movq	-1032(%rbp), %rax       ## 8-byte Reload
	movq	-808(%rbp), %rcx        ## 8-byte Reload
	cmpq	%rcx, %rax
	movq	%rax, -1024(%rbp)       ## 8-byte Spill
	jne	LBB0_44
LBB0_45:
	jmp	LBB0_46
LBB0_46:
	testb	$1, -691(%rbp)
	jne	LBB0_47
	jmp	LBB0_48
LBB0_47:
	movq	-776(%rbp), %rdi        ## 8-byte Reload
	callq	__ZNSt3__112basic_stringIcNS_11char_traitsIcEENS_9allocatorIcEEED1Ev
LBB0_48:
	jmp	LBB0_49
LBB0_49:
	testb	$1, -692(%rbp)
	jne	LBB0_50
	jmp	LBB0_53
LBB0_50:
	movq	-624(%rbp), %rax
	movq	-736(%rbp), %rcx        ## 8-byte Reload
	cmpq	%rax, %rcx
	movq	%rax, -1040(%rbp)       ## 8-byte Spill
	je	LBB0_52
LBB0_51:                                ## =>This Inner Loop Header: Depth=1
	movq	-1040(%rbp), %rax       ## 8-byte Reload
	addq	$-48, %rax
	movq	%rax, %rdi
	movq	%rax, -1048(%rbp)       ## 8-byte Spill
	callq	__ZN13DirectoryNodeD1Ev
	movq	-1048(%rbp), %rax       ## 8-byte Reload
	movq	-736(%rbp), %rcx        ## 8-byte Reload
	cmpq	%rcx, %rax
	movq	%rax, -1040(%rbp)       ## 8-byte Spill
	jne	LBB0_51
LBB0_52:
	jmp	LBB0_53
LBB0_53:
	testb	$1, -693(%rbp)
	jne	LBB0_54
	jmp	LBB0_55
LBB0_54:
	movq	-720(%rbp), %rdi        ## 8-byte Reload
	callq	__ZNSt3__112basic_stringIcNS_11char_traitsIcEENS_9allocatorIcEEED1Ev
LBB0_55:
	jmp	LBB0_56
LBB0_56:
	movq	-632(%rbp), %rdi
	callq	__Unwind_Resume
	ud2
LBB0_57:
	callq	___stack_chk_fail
	ud2
Lfunc_end0:
	.cfi_endproc
	.section	__TEXT,__gcc_except_tab
	.p2align	2
GCC_except_table0:
Lexception0:
	.byte	255                     ## @LPStart Encoding = omit
	.byte	255                     ## @TType Encoding = omit
	.byte	1                       ## Call site Encoding = uleb128
	.uleb128 Lcst_end0-Lcst_begin0
Lcst_begin0:
	.uleb128 Lfunc_begin0-Lfunc_begin0 ## >> Call Site 1 <<
	.uleb128 Ltmp0-Lfunc_begin0     ##   Call between Lfunc_begin0 and Ltmp0
	.byte	0                       ##     has no landing pad
	.byte	0                       ##   On action: cleanup
	.uleb128 Ltmp0-Lfunc_begin0     ## >> Call Site 2 <<
	.uleb128 Ltmp11-Ltmp0           ##   Call between Ltmp0 and Ltmp11
	.uleb128 Ltmp12-Lfunc_begin0    ##     jumps to Ltmp12
	.byte	0                       ##   On action: cleanup
	.uleb128 Ltmp13-Lfunc_begin0    ## >> Call Site 3 <<
	.uleb128 Ltmp14-Ltmp13          ##   Call between Ltmp13 and Ltmp14
	.uleb128 Ltmp15-Lfunc_begin0    ##     jumps to Ltmp15
	.byte	0                       ##   On action: cleanup
	.uleb128 Ltmp16-Lfunc_begin0    ## >> Call Site 4 <<
	.uleb128 Ltmp19-Ltmp16          ##   Call between Ltmp16 and Ltmp19
	.uleb128 Ltmp20-Lfunc_begin0    ##     jumps to Ltmp20
	.byte	0                       ##   On action: cleanup
	.uleb128 Ltmp21-Lfunc_begin0    ## >> Call Site 5 <<
	.uleb128 Ltmp24-Ltmp21          ##   Call between Ltmp21 and Ltmp24
	.uleb128 Ltmp25-Lfunc_begin0    ##     jumps to Ltmp25
	.byte	0                       ##   On action: cleanup
	.uleb128 Ltmp26-Lfunc_begin0    ## >> Call Site 6 <<
	.uleb128 Ltmp31-Ltmp26          ##   Call between Ltmp26 and Ltmp31
	.uleb128 Ltmp32-Lfunc_begin0    ##     jumps to Ltmp32
	.byte	0                       ##   On action: cleanup
	.uleb128 Ltmp33-Lfunc_begin0    ## >> Call Site 7 <<
	.uleb128 Ltmp34-Ltmp33          ##   Call between Ltmp33 and Ltmp34
	.uleb128 Ltmp35-Lfunc_begin0    ##     jumps to Ltmp35
	.byte	0                       ##   On action: cleanup
	.uleb128 Ltmp34-Lfunc_begin0    ## >> Call Site 8 <<
	.uleb128 Lfunc_end0-Ltmp34      ##   Call between Ltmp34 and Lfunc_end0
	.byte	0                       ##     has no landing pad
	.byte	0                       ##   On action: cleanup
Lcst_end0:
	.p2align	2
                                        ## -- End function
	.section	__TEXT,__text,regular,pure_instructions
	.p2align	4, 0x90         ## -- Begin function _ZNSt3__112basic_stringIcNS_11char_traitsIcEENS_9allocatorIcEEEC1IDnEEPKc
__ZNSt3__112basic_stringIcNS_11char_traitsIcEENS_9allocatorIcEEEC1IDnEEPKc: ## @_ZNSt3__112basic_stringIcNS_11char_traitsIcEENS_9allocatorIcEEEC1IDnEEPKc
	.cfi_startproc
## %bb.0:
	pushq	%rbp
	.cfi_def_cfa_offset 16
	.cfi_offset %rbp, -16
	movq	%rsp, %rbp
	.cfi_def_cfa_register %rbp
	subq	$16, %rsp
	movq	%rdi, -8(%rbp)
	movq	%rsi, -16(%rbp)
	movq	-8(%rbp), %rdi
	movq	-16(%rbp), %rsi
	callq	__ZNSt3__112basic_stringIcNS_11char_traitsIcEENS_9allocatorIcEEEC2IDnEEPKc
	addq	$16, %rsp
	popq	%rbp
	retq
	.cfi_endproc
                                        ## -- End function
	.p2align	4, 0x90         ## -- Begin function _ZNSt3__16vectorI13DirectoryNodeNS_9allocatorIS1_EEEC1Ev
__ZNSt3__16vectorI13DirectoryNodeNS_9allocatorIS1_EEEC1Ev: ## @_ZNSt3__16vectorI13DirectoryNodeNS_9allocatorIS1_EEEC1Ev
	.cfi_startproc
## %bb.0:
	pushq	%rbp
	.cfi_def_cfa_offset 16
	.cfi_offset %rbp, -16
	movq	%rsp, %rbp
	.cfi_def_cfa_register %rbp
	subq	$16, %rsp
	movq	%rdi, -8(%rbp)
	movq	-8(%rbp), %rdi
	callq	__ZNSt3__16vectorI13DirectoryNodeNS_9allocatorIS1_EEEC2Ev
	addq	$16, %rsp
	popq	%rbp
	retq
	.cfi_endproc
                                        ## -- End function
	.globl	__ZN13DirectoryNodeD1Ev ## -- Begin function _ZN13DirectoryNodeD1Ev
	.weak_def_can_be_hidden	__ZN13DirectoryNodeD1Ev
	.p2align	4, 0x90
__ZN13DirectoryNodeD1Ev:                ## @_ZN13DirectoryNodeD1Ev
	.cfi_startproc
## %bb.0:
	pushq	%rbp
	.cfi_def_cfa_offset 16
	.cfi_offset %rbp, -16
	movq	%rsp, %rbp
	.cfi_def_cfa_register %rbp
	subq	$16, %rsp
	movq	%rdi, -8(%rbp)
	movq	-8(%rbp), %rdi
	callq	__ZN13DirectoryNodeD2Ev
	addq	$16, %rsp
	popq	%rbp
	retq
	.cfi_endproc
                                        ## -- End function
	.p2align	4, 0x90         ## -- Begin function _ZNSt3__16vectorI13DirectoryNodeNS_9allocatorIS1_EEEC1ESt16initializer_listIS1_E
__ZNSt3__16vectorI13DirectoryNodeNS_9allocatorIS1_EEEC1ESt16initializer_listIS1_E: ## @_ZNSt3__16vectorI13DirectoryNodeNS_9allocatorIS1_EEEC1ESt16initializer_listIS1_E
	.cfi_startproc
## %bb.0:
	pushq	%rbp
	.cfi_def_cfa_offset 16
	.cfi_offset %rbp, -16
	movq	%rsp, %rbp
	.cfi_def_cfa_register %rbp
	subq	$32, %rsp
	movq	%rsi, -16(%rbp)
	movq	%rdx, -8(%rbp)
	movq	%rdi, -24(%rbp)
	movq	-24(%rbp), %rdi
	movq	-16(%rbp), %rsi
	movq	-8(%rbp), %rdx
	callq	__ZNSt3__16vectorI13DirectoryNodeNS_9allocatorIS1_EEEC2ESt16initializer_listIS1_E
	addq	$32, %rsp
	popq	%rbp
	retq
	.cfi_endproc
                                        ## -- End function
	.globl	__Z10clean_pathRKNSt3__112basic_stringIcNS_11char_traitsIcEENS_9allocatorIcEEEE ## -- Begin function _Z10clean_pathRKNSt3__112basic_stringIcNS_11char_traitsIcEENS_9allocatorIcEEEE
	.p2align	4, 0x90
__Z10clean_pathRKNSt3__112basic_stringIcNS_11char_traitsIcEENS_9allocatorIcEEEE: ## @_Z10clean_pathRKNSt3__112basic_stringIcNS_11char_traitsIcEENS_9allocatorIcEEEE
Lfunc_begin1:
	.cfi_startproc
	.cfi_personality 155, ___gxx_personality_v0
	.cfi_lsda 16, Lexception1
## %bb.0:
	pushq	%rbp
	.cfi_def_cfa_offset 16
	.cfi_offset %rbp, -16
	movq	%rsp, %rbp
	.cfi_def_cfa_register %rbp
	subq	$80, %rsp
	movq	%rdi, %rax
	movq	%rdi, -8(%rbp)
	movq	%rsi, -16(%rbp)
	movb	$0, -17(%rbp)
	movq	-16(%rbp), %rsi
	movq	%rdi, -72(%rbp)         ## 8-byte Spill
	movq	%rax, -80(%rbp)         ## 8-byte Spill
	callq	__ZNSt3__112basic_stringIcNS_11char_traitsIcEENS_9allocatorIcEEEC1ERKS5_
	movq	-72(%rbp), %rdi         ## 8-byte Reload
	callq	__ZNSt3__112basic_stringIcNS_11char_traitsIcEENS_9allocatorIcEEE5beginEv
	movq	%rax, -32(%rbp)
	movq	-72(%rbp), %rdi         ## 8-byte Reload
	callq	__ZNSt3__112basic_stringIcNS_11char_traitsIcEENS_9allocatorIcEEE3endEv
	movq	%rax, -40(%rbp)
	movb	$92, -41(%rbp)
	movb	$47, -42(%rbp)
	movq	-32(%rbp), %rdi
	movq	-40(%rbp), %rsi
Ltmp36:
	leaq	-41(%rbp), %rdx
	leaq	-42(%rbp), %rcx
	callq	__ZNSt3__1L7replaceINS_11__wrap_iterIPcEEcEEvT_S4_RKT0_S7_
Ltmp37:
	jmp	LBB5_1
LBB5_1:
	movq	-72(%rbp), %rdi         ## 8-byte Reload
	callq	__ZNKSt3__112basic_stringIcNS_11char_traitsIcEENS_9allocatorIcEEE5emptyEv
	testb	$1, %al
	jne	LBB5_6
## %bb.2:
	movq	-72(%rbp), %rdi         ## 8-byte Reload
	callq	__ZNSt3__112basic_stringIcNS_11char_traitsIcEENS_9allocatorIcEEE4backEv
	movsbl	(%rax), %ecx
	cmpl	$47, %ecx
	jne	LBB5_6
## %bb.3:
Ltmp38:
	movq	-72(%rbp), %rdi         ## 8-byte Reload
	callq	__ZNSt3__112basic_stringIcNS_11char_traitsIcEENS_9allocatorIcEEE8pop_backEv
Ltmp39:
	jmp	LBB5_4
LBB5_4:
	jmp	LBB5_6
LBB5_5:
Ltmp40:
                                        ## kill: def $edx killed $edx killed $rdx
	movq	%rax, -56(%rbp)
	movl	%edx, -60(%rbp)
	movq	-72(%rbp), %rdi         ## 8-byte Reload
	callq	__ZNSt3__112basic_stringIcNS_11char_traitsIcEENS_9allocatorIcEEED1Ev
	jmp	LBB5_9
LBB5_6:
	movb	$1, -17(%rbp)
	testb	$1, -17(%rbp)
	jne	LBB5_8
## %bb.7:
	movq	-72(%rbp), %rdi         ## 8-byte Reload
	callq	__ZNSt3__112basic_stringIcNS_11char_traitsIcEENS_9allocatorIcEEED1Ev
LBB5_8:
	movq	-80(%rbp), %rax         ## 8-byte Reload
	addq	$80, %rsp
	popq	%rbp
	retq
LBB5_9:
	movq	-56(%rbp), %rdi
	callq	__Unwind_Resume
	ud2
Lfunc_end1:
	.cfi_endproc
	.section	__TEXT,__gcc_except_tab
	.p2align	2
GCC_except_table5:
Lexception1:
	.byte	255                     ## @LPStart Encoding = omit
	.byte	255                     ## @TType Encoding = omit
	.byte	1                       ## Call site Encoding = uleb128
	.uleb128 Lcst_end1-Lcst_begin1
Lcst_begin1:
	.uleb128 Lfunc_begin1-Lfunc_begin1 ## >> Call Site 1 <<
	.uleb128 Ltmp36-Lfunc_begin1    ##   Call between Lfunc_begin1 and Ltmp36
	.byte	0                       ##     has no landing pad
	.byte	0                       ##   On action: cleanup
	.uleb128 Ltmp36-Lfunc_begin1    ## >> Call Site 2 <<
	.uleb128 Ltmp39-Ltmp36          ##   Call between Ltmp36 and Ltmp39
	.uleb128 Ltmp40-Lfunc_begin1    ##     jumps to Ltmp40
	.byte	0                       ##   On action: cleanup
	.uleb128 Ltmp39-Lfunc_begin1    ## >> Call Site 3 <<
	.uleb128 Lfunc_end1-Ltmp39      ##   Call between Ltmp39 and Lfunc_end1
	.byte	0                       ##     has no landing pad
	.byte	0                       ##   On action: cleanup
Lcst_end1:
	.p2align	2
                                        ## -- End function
	.section	__TEXT,__text,regular,pure_instructions
	.p2align	4, 0x90         ## -- Begin function _ZNSt3__1L7replaceINS_11__wrap_iterIPcEEcEEvT_S4_RKT0_S7_
__ZNSt3__1L7replaceINS_11__wrap_iterIPcEEcEEvT_S4_RKT0_S7_: ## @_ZNSt3__1L7replaceINS_11__wrap_iterIPcEEcEEvT_S4_RKT0_S7_
	.cfi_startproc
## %bb.0:
	pushq	%rbp
	.cfi_def_cfa_offset 16
	.cfi_offset %rbp, -16
	movq	%rsp, %rbp
	.cfi_def_cfa_register %rbp
	subq	$48, %rsp
	movq	%rdi, -8(%rbp)
	movq	%rsi, -16(%rbp)
	movq	%rdx, -24(%rbp)
	movq	%rcx, -32(%rbp)
LBB6_1:                                 ## =>This Inner Loop Header: Depth=1
	leaq	-8(%rbp), %rdi
	leaq	-16(%rbp), %rsi
	callq	__ZNSt3__1neIPcEEbRKNS_11__wrap_iterIT_EES6_
	testb	$1, %al
	jne	LBB6_2
	jmp	LBB6_6
LBB6_2:                                 ##   in Loop: Header=BB6_1 Depth=1
	leaq	-8(%rbp), %rdi
	callq	__ZNKSt3__111__wrap_iterIPcEdeEv
	movsbl	(%rax), %ecx
	movq	-24(%rbp), %rax
	movsbl	(%rax), %edx
	cmpl	%edx, %ecx
	jne	LBB6_4
## %bb.3:                               ##   in Loop: Header=BB6_1 Depth=1
	movq	-32(%rbp), %rax
	movb	(%rax), %cl
	leaq	-8(%rbp), %rdi
	movb	%cl, -33(%rbp)          ## 1-byte Spill
	callq	__ZNKSt3__111__wrap_iterIPcEdeEv
	movb	-33(%rbp), %cl          ## 1-byte Reload
	movb	%cl, (%rax)
LBB6_4:                                 ##   in Loop: Header=BB6_1 Depth=1
	jmp	LBB6_5
LBB6_5:                                 ##   in Loop: Header=BB6_1 Depth=1
	leaq	-8(%rbp), %rdi
	callq	__ZNSt3__111__wrap_iterIPcEppEv
	jmp	LBB6_1
LBB6_6:
	addq	$48, %rsp
	popq	%rbp
	retq
	.cfi_endproc
                                        ## -- End function
	.p2align	4, 0x90         ## -- Begin function _ZNSt3__112basic_stringIcNS_11char_traitsIcEENS_9allocatorIcEEE5beginEv
__ZNSt3__112basic_stringIcNS_11char_traitsIcEENS_9allocatorIcEEE5beginEv: ## @_ZNSt3__112basic_stringIcNS_11char_traitsIcEENS_9allocatorIcEEE5beginEv
	.cfi_startproc
## %bb.0:
	pushq	%rbp
	.cfi_def_cfa_offset 16
	.cfi_offset %rbp, -16
	movq	%rsp, %rbp
	.cfi_def_cfa_register %rbp
	subq	$16, %rsp
	movq	%rdi, -16(%rbp)
	movq	-16(%rbp), %rdi
	callq	__ZNSt3__112basic_stringIcNS_11char_traitsIcEENS_9allocatorIcEEE13__get_pointerEv
	leaq	-8(%rbp), %rdi
	movq	%rax, %rsi
	callq	__ZNSt3__111__wrap_iterIPcEC1ES1_
	movq	-8(%rbp), %rax
	addq	$16, %rsp
	popq	%rbp
	retq
	.cfi_endproc
                                        ## -- End function
	.p2align	4, 0x90         ## -- Begin function _ZNSt3__112basic_stringIcNS_11char_traitsIcEENS_9allocatorIcEEE3endEv
__ZNSt3__112basic_stringIcNS_11char_traitsIcEENS_9allocatorIcEEE3endEv: ## @_ZNSt3__112basic_stringIcNS_11char_traitsIcEENS_9allocatorIcEEE3endEv
	.cfi_startproc
## %bb.0:
	pushq	%rbp
	.cfi_def_cfa_offset 16
	.cfi_offset %rbp, -16
	movq	%rsp, %rbp
	.cfi_def_cfa_register %rbp
	subq	$32, %rsp
	movq	%rdi, -16(%rbp)
	movq	-16(%rbp), %rax
	movq	%rax, %rdi
	movq	%rax, -24(%rbp)         ## 8-byte Spill
	callq	__ZNSt3__112basic_stringIcNS_11char_traitsIcEENS_9allocatorIcEEE13__get_pointerEv
	movq	-24(%rbp), %rdi         ## 8-byte Reload
	movq	%rax, -32(%rbp)         ## 8-byte Spill
	callq	__ZNKSt3__112basic_stringIcNS_11char_traitsIcEENS_9allocatorIcEEE4sizeEv
	movq	-32(%rbp), %rcx         ## 8-byte Reload
	addq	%rax, %rcx
	leaq	-8(%rbp), %rdi
	movq	%rcx, %rsi
	callq	__ZNSt3__111__wrap_iterIPcEC1ES1_
	movq	-8(%rbp), %rax
	addq	$32, %rsp
	popq	%rbp
	retq
	.cfi_endproc
                                        ## -- End function
	.p2align	4, 0x90         ## -- Begin function _ZNKSt3__112basic_stringIcNS_11char_traitsIcEENS_9allocatorIcEEE5emptyEv
__ZNKSt3__112basic_stringIcNS_11char_traitsIcEENS_9allocatorIcEEE5emptyEv: ## @_ZNKSt3__112basic_stringIcNS_11char_traitsIcEENS_9allocatorIcEEE5emptyEv
	.cfi_startproc
## %bb.0:
	pushq	%rbp
	.cfi_def_cfa_offset 16
	.cfi_offset %rbp, -16
	movq	%rsp, %rbp
	.cfi_def_cfa_register %rbp
	subq	$16, %rsp
	movq	%rdi, -8(%rbp)
	movq	-8(%rbp), %rdi
	callq	__ZNKSt3__112basic_stringIcNS_11char_traitsIcEENS_9allocatorIcEEE4sizeEv
	cmpq	$0, %rax
	sete	%cl
	andb	$1, %cl
	movzbl	%cl, %eax
	addq	$16, %rsp
	popq	%rbp
	retq
	.cfi_endproc
                                        ## -- End function
	.p2align	4, 0x90         ## -- Begin function _ZNSt3__112basic_stringIcNS_11char_traitsIcEENS_9allocatorIcEEE4backEv
__ZNSt3__112basic_stringIcNS_11char_traitsIcEENS_9allocatorIcEEE4backEv: ## @_ZNSt3__112basic_stringIcNS_11char_traitsIcEENS_9allocatorIcEEE4backEv
	.cfi_startproc
## %bb.0:
	pushq	%rbp
	.cfi_def_cfa_offset 16
	.cfi_offset %rbp, -16
	movq	%rsp, %rbp
	.cfi_def_cfa_register %rbp
	subq	$32, %rsp
	movq	%rdi, -8(%rbp)
	movq	-8(%rbp), %rax
	movq	%rax, %rdi
	movq	%rax, -16(%rbp)         ## 8-byte Spill
	callq	__ZNSt3__112basic_stringIcNS_11char_traitsIcEENS_9allocatorIcEEE13__get_pointerEv
	movq	-16(%rbp), %rdi         ## 8-byte Reload
	movq	%rax, -24(%rbp)         ## 8-byte Spill
	callq	__ZNKSt3__112basic_stringIcNS_11char_traitsIcEENS_9allocatorIcEEE4sizeEv
	movq	-24(%rbp), %rcx         ## 8-byte Reload
	addq	%rax, %rcx
	addq	$-1, %rcx
	movq	%rcx, %rax
	addq	$32, %rsp
	popq	%rbp
	retq
	.cfi_endproc
                                        ## -- End function
	.p2align	4, 0x90         ## -- Begin function _ZNSt3__112basic_stringIcNS_11char_traitsIcEENS_9allocatorIcEEE8pop_backEv
__ZNSt3__112basic_stringIcNS_11char_traitsIcEENS_9allocatorIcEEE8pop_backEv: ## @_ZNSt3__112basic_stringIcNS_11char_traitsIcEENS_9allocatorIcEEE8pop_backEv
	.cfi_startproc
## %bb.0:
	pushq	%rbp
	.cfi_def_cfa_offset 16
	.cfi_offset %rbp, -16
	movq	%rsp, %rbp
	.cfi_def_cfa_register %rbp
	subq	$32, %rsp
	movq	%rdi, -8(%rbp)
	movq	-8(%rbp), %rax
	movq	%rax, %rdi
	movq	%rax, -32(%rbp)         ## 8-byte Spill
	callq	__ZNKSt3__112basic_stringIcNS_11char_traitsIcEENS_9allocatorIcEEE9__is_longEv
	testb	$1, %al
	jne	LBB11_1
	jmp	LBB11_2
LBB11_1:
	movq	-32(%rbp), %rdi         ## 8-byte Reload
	callq	__ZNKSt3__112basic_stringIcNS_11char_traitsIcEENS_9allocatorIcEEE15__get_long_sizeEv
	subq	$1, %rax
	movq	%rax, -16(%rbp)
	movq	-16(%rbp), %rsi
	movq	-32(%rbp), %rdi         ## 8-byte Reload
	callq	__ZNSt3__112basic_stringIcNS_11char_traitsIcEENS_9allocatorIcEEE15__set_long_sizeEm
	movq	-32(%rbp), %rdi         ## 8-byte Reload
	callq	__ZNSt3__112basic_stringIcNS_11char_traitsIcEENS_9allocatorIcEEE18__get_long_pointerEv
	addq	-16(%rbp), %rax
	movb	$0, -17(%rbp)
	movq	%rax, %rdi
	leaq	-17(%rbp), %rsi
	callq	__ZNSt3__111char_traitsIcE6assignERcRKc
	jmp	LBB11_3
LBB11_2:
	movq	-32(%rbp), %rdi         ## 8-byte Reload
	callq	__ZNKSt3__112basic_stringIcNS_11char_traitsIcEENS_9allocatorIcEEE16__get_short_sizeEv
	subq	$1, %rax
	movq	%rax, -16(%rbp)
	movq	-16(%rbp), %rsi
	movq	-32(%rbp), %rdi         ## 8-byte Reload
	callq	__ZNSt3__112basic_stringIcNS_11char_traitsIcEENS_9allocatorIcEEE16__set_short_sizeEm
	movq	-32(%rbp), %rdi         ## 8-byte Reload
	callq	__ZNSt3__112basic_stringIcNS_11char_traitsIcEENS_9allocatorIcEEE19__get_short_pointerEv
	addq	-16(%rbp), %rax
	movb	$0, -18(%rbp)
	movq	%rax, %rdi
	leaq	-18(%rbp), %rsi
	callq	__ZNSt3__111char_traitsIcE6assignERcRKc
LBB11_3:
	movq	-16(%rbp), %rsi
	movq	-32(%rbp), %rdi         ## 8-byte Reload
	callq	__ZNSt3__112basic_stringIcNS_11char_traitsIcEENS_9allocatorIcEEE27__invalidate_iterators_pastEm
	addq	$32, %rsp
	popq	%rbp
	retq
	.cfi_endproc
                                        ## -- End function
	.globl	__Z14get_valid_nameRKNSt3__112basic_stringIcNS_11char_traitsIcEENS_9allocatorIcEEEE ## -- Begin function _Z14get_valid_nameRKNSt3__112basic_stringIcNS_11char_traitsIcEENS_9allocatorIcEEEE
	.p2align	4, 0x90
__Z14get_valid_nameRKNSt3__112basic_stringIcNS_11char_traitsIcEENS_9allocatorIcEEEE: ## @_Z14get_valid_nameRKNSt3__112basic_stringIcNS_11char_traitsIcEENS_9allocatorIcEEEE
Lfunc_begin2:
	.cfi_startproc
	.cfi_personality 155, ___gxx_personality_v0
	.cfi_lsda 16, Lexception2
## %bb.0:
	pushq	%rbp
	.cfi_def_cfa_offset 16
	.cfi_offset %rbp, -16
	movq	%rsp, %rbp
	.cfi_def_cfa_register %rbp
	subq	$224, %rsp
	movq	%rdi, %rax
	movq	%rdi, -8(%rbp)
	movq	%rsi, -16(%rbp)
	movb	$0, -17(%rbp)
	movq	-16(%rbp), %rsi
	movq	%rdi, -176(%rbp)        ## 8-byte Spill
	movq	%rax, -184(%rbp)        ## 8-byte Spill
	callq	__ZNSt3__112basic_stringIcNS_11char_traitsIcEENS_9allocatorIcEEEC1ERKS5_
	movq	-176(%rbp), %rdi        ## 8-byte Reload
	callq	__ZNSt3__112basic_stringIcNS_11char_traitsIcEENS_9allocatorIcEEE5beginEv
	movq	%rax, -48(%rbp)
	movq	-176(%rbp), %rdi        ## 8-byte Reload
	callq	__ZNSt3__112basic_stringIcNS_11char_traitsIcEENS_9allocatorIcEEE3endEv
	movq	%rax, -56(%rbp)
	movq	-48(%rbp), %rdi
	movq	-56(%rbp), %rsi
Ltmp41:
	callq	__ZNSt3__19remove_ifINS_11__wrap_iterIPcEEZ14get_valid_nameRKNS_12basic_stringIcNS_11char_traitsIcEENS_9allocatorIcEEEEE3$_0EET_SD_SD_T0_
Ltmp42:
	movq	%rax, -192(%rbp)        ## 8-byte Spill
	jmp	LBB12_1
LBB12_1:
	movq	-192(%rbp), %rax        ## 8-byte Reload
	movq	%rax, -40(%rbp)
	xorl	%ecx, %ecx
	movl	%ecx, %edx
	leaq	-32(%rbp), %rdi
	leaq	-40(%rbp), %rsi
	movq	%rdx, -200(%rbp)        ## 8-byte Spill
	callq	__ZNSt3__111__wrap_iterIPKcEC1IPcEERKNS0_IT_EEPNS_9enable_ifIXsr14is_convertibleIS6_S2_EE5valueEvE4typeE
	movq	-176(%rbp), %rdi        ## 8-byte Reload
	callq	__ZNSt3__112basic_stringIcNS_11char_traitsIcEENS_9allocatorIcEEE3endEv
	movq	%rax, -96(%rbp)
	leaq	-88(%rbp), %rdi
	leaq	-96(%rbp), %rsi
	movq	-200(%rbp), %rdx        ## 8-byte Reload
	callq	__ZNSt3__111__wrap_iterIPKcEC1IPcEERKNS0_IT_EEPNS_9enable_ifIXsr14is_convertibleIS6_S2_EE5valueEvE4typeE
	movq	-32(%rbp), %rsi
	movq	-88(%rbp), %rdx
Ltmp43:
	movq	-176(%rbp), %rdi        ## 8-byte Reload
	callq	__ZNSt3__112basic_stringIcNS_11char_traitsIcEENS_9allocatorIcEEE5eraseENS_11__wrap_iterIPKcEES9_
Ltmp44:
	movq	%rax, -208(%rbp)        ## 8-byte Spill
	jmp	LBB12_2
LBB12_2:
	movq	-208(%rbp), %rax        ## 8-byte Reload
	movq	%rax, -104(%rbp)
	movq	-176(%rbp), %rdi        ## 8-byte Reload
	callq	__ZNSt3__112basic_stringIcNS_11char_traitsIcEENS_9allocatorIcEEE5beginEv
	movq	%rax, -112(%rbp)
	movq	-176(%rbp), %rdi        ## 8-byte Reload
	callq	__ZNSt3__112basic_stringIcNS_11char_traitsIcEENS_9allocatorIcEEE3endEv
	movq	%rax, -120(%rbp)
	movb	$32, -121(%rbp)
	movb	$45, -122(%rbp)
	movq	-112(%rbp), %rdi
	movq	-120(%rbp), %rsi
Ltmp45:
	leaq	-121(%rbp), %rdx
	leaq	-122(%rbp), %rcx
	callq	__ZNSt3__1L7replaceINS_11__wrap_iterIPcEEcEEvT_S4_RKT0_S7_
Ltmp46:
	jmp	LBB12_3
LBB12_3:
	movq	-176(%rbp), %rdi        ## 8-byte Reload
	callq	__ZNSt3__112basic_stringIcNS_11char_traitsIcEENS_9allocatorIcEEE5beginEv
	movq	%rax, -136(%rbp)
	movq	-176(%rbp), %rdi        ## 8-byte Reload
	callq	__ZNSt3__112basic_stringIcNS_11char_traitsIcEENS_9allocatorIcEEE3endEv
	movq	%rax, -144(%rbp)
	movq	-176(%rbp), %rdi        ## 8-byte Reload
	callq	__ZNSt3__112basic_stringIcNS_11char_traitsIcEENS_9allocatorIcEEE5beginEv
	movq	%rax, -152(%rbp)
	movq	-136(%rbp), %rdi
	movq	-144(%rbp), %rsi
	movq	-152(%rbp), %rdx
Ltmp47:
	callq	__ZNSt3__1L9transformINS_11__wrap_iterIPcEES3_Z14get_valid_nameRKNS_12basic_stringIcNS_11char_traitsIcEENS_9allocatorIcEEEEE3$_1EET0_T_SE_SD_T1_
Ltmp48:
	movq	%rax, -216(%rbp)        ## 8-byte Spill
	jmp	LBB12_4
LBB12_4:
	movq	-216(%rbp), %rax        ## 8-byte Reload
	movq	%rax, -168(%rbp)
	movb	$1, -17(%rbp)
	testb	$1, -17(%rbp)
	jne	LBB12_7
	jmp	LBB12_6
LBB12_5:
Ltmp49:
                                        ## kill: def $edx killed $edx killed $rdx
	movq	%rax, -72(%rbp)
	movl	%edx, -76(%rbp)
	movq	-176(%rbp), %rdi        ## 8-byte Reload
	callq	__ZNSt3__112basic_stringIcNS_11char_traitsIcEENS_9allocatorIcEEED1Ev
	jmp	LBB12_8
LBB12_6:
	movq	-176(%rbp), %rdi        ## 8-byte Reload
	callq	__ZNSt3__112basic_stringIcNS_11char_traitsIcEENS_9allocatorIcEEED1Ev
LBB12_7:
	movq	-184(%rbp), %rax        ## 8-byte Reload
	addq	$224, %rsp
	popq	%rbp
	retq
LBB12_8:
	movq	-72(%rbp), %rdi
	callq	__Unwind_Resume
	ud2
Lfunc_end2:
	.cfi_endproc
	.section	__TEXT,__gcc_except_tab
	.p2align	2
GCC_except_table12:
Lexception2:
	.byte	255                     ## @LPStart Encoding = omit
	.byte	255                     ## @TType Encoding = omit
	.byte	1                       ## Call site Encoding = uleb128
	.uleb128 Lcst_end2-Lcst_begin2
Lcst_begin2:
	.uleb128 Lfunc_begin2-Lfunc_begin2 ## >> Call Site 1 <<
	.uleb128 Ltmp41-Lfunc_begin2    ##   Call between Lfunc_begin2 and Ltmp41
	.byte	0                       ##     has no landing pad
	.byte	0                       ##   On action: cleanup
	.uleb128 Ltmp41-Lfunc_begin2    ## >> Call Site 2 <<
	.uleb128 Ltmp48-Ltmp41          ##   Call between Ltmp41 and Ltmp48
	.uleb128 Ltmp49-Lfunc_begin2    ##     jumps to Ltmp49
	.byte	0                       ##   On action: cleanup
	.uleb128 Ltmp48-Lfunc_begin2    ## >> Call Site 3 <<
	.uleb128 Lfunc_end2-Ltmp48      ##   Call between Ltmp48 and Lfunc_end2
	.byte	0                       ##     has no landing pad
	.byte	0                       ##   On action: cleanup
Lcst_end2:
	.p2align	2
                                        ## -- End function
	.section	__TEXT,__text,regular,pure_instructions
	.p2align	4, 0x90         ## -- Begin function _ZNSt3__112basic_stringIcNS_11char_traitsIcEENS_9allocatorIcEEE5eraseENS_11__wrap_iterIPKcEES9_
__ZNSt3__112basic_stringIcNS_11char_traitsIcEENS_9allocatorIcEEE5eraseENS_11__wrap_iterIPKcEES9_: ## @_ZNSt3__112basic_stringIcNS_11char_traitsIcEENS_9allocatorIcEEE5eraseENS_11__wrap_iterIPKcEES9_
	.cfi_startproc
## %bb.0:
	pushq	%rbp
	.cfi_def_cfa_offset 16
	.cfi_offset %rbp, -16
	movq	%rsp, %rbp
	.cfi_def_cfa_register %rbp
	subq	$80, %rsp
	movq	%rsi, -16(%rbp)
	movq	%rdx, -24(%rbp)
	movq	%rdi, -32(%rbp)
	movq	-32(%rbp), %rax
	movq	%rax, %rdi
	movq	%rax, -56(%rbp)         ## 8-byte Spill
	callq	__ZNSt3__112basic_stringIcNS_11char_traitsIcEENS_9allocatorIcEEE5beginEv
	movq	%rax, -40(%rbp)
	leaq	-16(%rbp), %rdi
	leaq	-40(%rbp), %rsi
	callq	__ZNSt3__1miIPKcPcEEDTmicldtfp_4baseEcldtfp0_4baseEERKNS_11__wrap_iterIT_EERKNS5_IT0_EE
	movq	%rax, -48(%rbp)
	movq	-48(%rbp), %rsi
	leaq	-24(%rbp), %rdi
	leaq	-16(%rbp), %rax
	movq	%rsi, -64(%rbp)         ## 8-byte Spill
	movq	%rax, %rsi
	callq	__ZNSt3__1miIPKcS2_EEDTmicldtfp_4baseEcldtfp0_4baseEERKNS_11__wrap_iterIT_EERKNS4_IT0_EE
	movq	-56(%rbp), %rdi         ## 8-byte Reload
	movq	-64(%rbp), %rsi         ## 8-byte Reload
	movq	%rax, %rdx
	callq	__ZNSt3__112basic_stringIcNS_11char_traitsIcEENS_9allocatorIcEEE5eraseEmm
	movq	-48(%rbp), %rsi
	leaq	-40(%rbp), %rdi
	movq	%rax, -72(%rbp)         ## 8-byte Spill
	callq	__ZNKSt3__111__wrap_iterIPcEplEl
	movq	%rax, -8(%rbp)
	movq	-8(%rbp), %rax
	addq	$80, %rsp
	popq	%rbp
	retq
	.cfi_endproc
                                        ## -- End function
	.p2align	4, 0x90         ## -- Begin function _ZNSt3__19remove_ifINS_11__wrap_iterIPcEEZ14get_valid_nameRKNS_12basic_stringIcNS_11char_traitsIcEENS_9allocatorIcEEEEE3$_0EET_SD_SD_T0_
__ZNSt3__19remove_ifINS_11__wrap_iterIPcEEZ14get_valid_nameRKNS_12basic_stringIcNS_11char_traitsIcEENS_9allocatorIcEEEEE3$_0EET_SD_SD_T0_: ## @"_ZNSt3__19remove_ifINS_11__wrap_iterIPcEEZ14get_valid_nameRKNS_12basic_stringIcNS_11char_traitsIcEENS_9allocatorIcEEEEE3$_0EET_SD_SD_T0_"
	.cfi_startproc
## %bb.0:
	pushq	%rbp
	.cfi_def_cfa_offset 16
	.cfi_offset %rbp, -16
	movq	%rsp, %rbp
	.cfi_def_cfa_register %rbp
	subq	$80, %rsp
	movq	%rdi, -16(%rbp)
	movq	%rsi, -24(%rbp)
	movq	-16(%rbp), %rax
	movq	%rax, -48(%rbp)
	movq	-24(%rbp), %rax
	movq	%rax, -56(%rbp)
	movq	-48(%rbp), %rdi
	movq	-56(%rbp), %rsi
	leaq	-32(%rbp), %rdx
	callq	__ZNSt3__1L7find_ifINS_11__wrap_iterIPcEERZ14get_valid_nameRKNS_12basic_stringIcNS_11char_traitsIcEENS_9allocatorIcEEEEE3$_0EET_SE_SE_T0_
	movq	%rax, -40(%rbp)
	movq	-40(%rbp), %rax
	movq	%rax, -16(%rbp)
	leaq	-16(%rbp), %rdi
	leaq	-24(%rbp), %rsi
	callq	__ZNSt3__1neIPcEEbRKNS_11__wrap_iterIT_EES6_
	testb	$1, %al
	jne	LBB14_1
	jmp	LBB14_7
LBB14_1:
	movq	-16(%rbp), %rax
	movq	%rax, -64(%rbp)
LBB14_2:                                ## =>This Inner Loop Header: Depth=1
	leaq	-64(%rbp), %rdi
	callq	__ZNSt3__111__wrap_iterIPcEppEv
	movq	%rax, %rdi
	leaq	-24(%rbp), %rsi
	callq	__ZNSt3__1neIPcEEbRKNS_11__wrap_iterIT_EES6_
	testb	$1, %al
	jne	LBB14_3
	jmp	LBB14_6
LBB14_3:                                ##   in Loop: Header=BB14_2 Depth=1
	leaq	-64(%rbp), %rdi
	callq	__ZNKSt3__111__wrap_iterIPcEdeEv
	leaq	-32(%rbp), %rdi
	movsbl	(%rax), %esi
	callq	__ZZ14get_valid_nameRKNSt3__112basic_stringIcNS_11char_traitsIcEENS_9allocatorIcEEEEENK3$_0clEc
	testb	$1, %al
	jne	LBB14_5
## %bb.4:                               ##   in Loop: Header=BB14_2 Depth=1
	leaq	-64(%rbp), %rdi
	callq	__ZNKSt3__111__wrap_iterIPcEdeEv
	movq	%rax, %rdi
	callq	__ZNSt3__1L4moveIRcEEONS_16remove_referenceIT_E4typeEOS3_
	movb	(%rax), %cl
	leaq	-16(%rbp), %rdi
	movb	%cl, -65(%rbp)          ## 1-byte Spill
	callq	__ZNKSt3__111__wrap_iterIPcEdeEv
	movb	-65(%rbp), %cl          ## 1-byte Reload
	movb	%cl, (%rax)
	leaq	-16(%rbp), %rdi
	callq	__ZNSt3__111__wrap_iterIPcEppEv
LBB14_5:                                ##   in Loop: Header=BB14_2 Depth=1
	jmp	LBB14_2
LBB14_6:
	jmp	LBB14_7
LBB14_7:
	movq	-16(%rbp), %rax
	movq	%rax, -8(%rbp)
	movq	-8(%rbp), %rax
	addq	$80, %rsp
	popq	%rbp
	retq
	.cfi_endproc
                                        ## -- End function
	.p2align	4, 0x90         ## -- Begin function _ZNSt3__111__wrap_iterIPKcEC1IPcEERKNS0_IT_EEPNS_9enable_ifIXsr14is_convertibleIS6_S2_EE5valueEvE4typeE
__ZNSt3__111__wrap_iterIPKcEC1IPcEERKNS0_IT_EEPNS_9enable_ifIXsr14is_convertibleIS6_S2_EE5valueEvE4typeE: ## @_ZNSt3__111__wrap_iterIPKcEC1IPcEERKNS0_IT_EEPNS_9enable_ifIXsr14is_convertibleIS6_S2_EE5valueEvE4typeE
	.cfi_startproc
## %bb.0:
	pushq	%rbp
	.cfi_def_cfa_offset 16
	.cfi_offset %rbp, -16
	movq	%rsp, %rbp
	.cfi_def_cfa_register %rbp
	subq	$32, %rsp
	movq	%rdi, -8(%rbp)
	movq	%rsi, -16(%rbp)
	movq	%rdx, -24(%rbp)
	movq	-8(%rbp), %rdi
	movq	-16(%rbp), %rsi
	movq	-24(%rbp), %rdx
	callq	__ZNSt3__111__wrap_iterIPKcEC2IPcEERKNS0_IT_EEPNS_9enable_ifIXsr14is_convertibleIS6_S2_EE5valueEvE4typeE
	addq	$32, %rsp
	popq	%rbp
	retq
	.cfi_endproc
                                        ## -- End function
	.p2align	4, 0x90         ## -- Begin function _ZNSt3__1L9transformINS_11__wrap_iterIPcEES3_Z14get_valid_nameRKNS_12basic_stringIcNS_11char_traitsIcEENS_9allocatorIcEEEEE3$_1EET0_T_SE_SD_T1_
__ZNSt3__1L9transformINS_11__wrap_iterIPcEES3_Z14get_valid_nameRKNS_12basic_stringIcNS_11char_traitsIcEENS_9allocatorIcEEEEE3$_1EET0_T_SE_SD_T1_: ## @"_ZNSt3__1L9transformINS_11__wrap_iterIPcEES3_Z14get_valid_nameRKNS_12basic_stringIcNS_11char_traitsIcEENS_9allocatorIcEEEEE3$_1EET0_T_SE_SD_T1_"
	.cfi_startproc
## %bb.0:
	pushq	%rbp
	.cfi_def_cfa_offset 16
	.cfi_offset %rbp, -16
	movq	%rsp, %rbp
	.cfi_def_cfa_register %rbp
	subq	$64, %rsp
	movq	%rdi, -16(%rbp)
	movq	%rsi, -24(%rbp)
	movq	%rdx, -32(%rbp)
LBB16_1:                                ## =>This Inner Loop Header: Depth=1
	leaq	-16(%rbp), %rdi
	leaq	-24(%rbp), %rsi
	callq	__ZNSt3__1neIPcEEbRKNS_11__wrap_iterIT_EES6_
	testb	$1, %al
	jne	LBB16_2
	jmp	LBB16_4
LBB16_2:                                ##   in Loop: Header=BB16_1 Depth=1
	leaq	-16(%rbp), %rdi
	callq	__ZNKSt3__111__wrap_iterIPcEdeEv
	leaq	-40(%rbp), %rdi
	movzbl	(%rax), %esi
	callq	__ZZ14get_valid_nameRKNSt3__112basic_stringIcNS_11char_traitsIcEENS_9allocatorIcEEEEENK3$_1clEh
                                        ## kill: def $al killed $al killed $eax
	leaq	-32(%rbp), %rdi
	movb	%al, -41(%rbp)          ## 1-byte Spill
	callq	__ZNKSt3__111__wrap_iterIPcEdeEv
	movb	-41(%rbp), %cl          ## 1-byte Reload
	movb	%cl, (%rax)
## %bb.3:                               ##   in Loop: Header=BB16_1 Depth=1
	leaq	-16(%rbp), %rdi
	callq	__ZNSt3__111__wrap_iterIPcEppEv
	leaq	-32(%rbp), %rdi
	movq	%rax, -56(%rbp)         ## 8-byte Spill
	callq	__ZNSt3__111__wrap_iterIPcEppEv
	jmp	LBB16_1
LBB16_4:
	movq	-32(%rbp), %rax
	movq	%rax, -8(%rbp)
	movq	-8(%rbp), %rax
	addq	$64, %rsp
	popq	%rbp
	retq
	.cfi_endproc
                                        ## -- End function
	.globl	__Z26create_directory_recursiveRKNSt3__14__fs10filesystem4pathERK13DirectoryNodei ## -- Begin function _Z26create_directory_recursiveRKNSt3__14__fs10filesystem4pathERK13DirectoryNodei
	.p2align	4, 0x90
__Z26create_directory_recursiveRKNSt3__14__fs10filesystem4pathERK13DirectoryNodei: ## @_Z26create_directory_recursiveRKNSt3__14__fs10filesystem4pathERK13DirectoryNodei
Lfunc_begin3:
	.cfi_startproc
	.cfi_personality 155, ___gxx_personality_v0
	.cfi_lsda 16, Lexception3
## %bb.0:
	pushq	%rbp
	.cfi_def_cfa_offset 16
	.cfi_offset %rbp, -16
	movq	%rsp, %rbp
	.cfi_def_cfa_register %rbp
	subq	$272, %rsp              ## imm = 0x110
	movq	%rdi, -16(%rbp)
	movq	%rsi, -24(%rbp)
	movl	%edx, -28(%rbp)
	movq	-16(%rbp), %rsi
	movq	-24(%rbp), %rax
	leaq	-80(%rbp), %rcx
	xorl	%edx, %edx
	movq	%rcx, %rdi
	movq	%rsi, -176(%rbp)        ## 8-byte Spill
	movq	%rax, %rsi
	movq	%rcx, -184(%rbp)        ## 8-byte Spill
	callq	__ZNSt3__14__fs10filesystem4pathC1INS_12basic_stringIcNS_11char_traitsIcEENS_9allocatorIcEEEEvEERKT_NS2_6formatE
Ltmp50:
	leaq	-56(%rbp), %rdi
	movq	-176(%rbp), %rsi        ## 8-byte Reload
	movq	-184(%rbp), %rdx        ## 8-byte Reload
	callq	__ZNSt3__14__fs10filesystemdvERKNS1_4pathES4_
Ltmp51:
	jmp	LBB17_1
LBB17_1:
	leaq	-80(%rbp), %rdi
	callq	__ZNSt3__14__fs10filesystem4pathD1Ev
	movl	-28(%rbp), %eax
	addl	%eax, %eax
	movslq	%eax, %rsi
Ltmp53:
	leaq	-120(%rbp), %rdi
	movl	$32, %edx
	callq	__ZNSt3__112basic_stringIcNS_11char_traitsIcEENS_9allocatorIcEEEC1Emc
Ltmp54:
	jmp	LBB17_2
LBB17_2:
Ltmp56:
	movq	__ZNSt3__14coutE@GOTPCREL(%rip), %rdi
	leaq	-120(%rbp), %rsi
	callq	__ZNSt3__1lsIcNS_11char_traitsIcEENS_9allocatorIcEEEERNS_13basic_ostreamIT_T0_EES9_RKNS_12basic_stringIS6_S7_T1_EE
Ltmp57:
	movq	%rax, -192(%rbp)        ## 8-byte Spill
	jmp	LBB17_3
LBB17_3:
	movq	-24(%rbp), %rsi
Ltmp58:
	movq	-192(%rbp), %rdi        ## 8-byte Reload
	callq	__ZNSt3__1lsIcNS_11char_traitsIcEENS_9allocatorIcEEEERNS_13basic_ostreamIT_T0_EES9_RKNS_12basic_stringIS6_S7_T1_EE
Ltmp59:
	jmp	LBB17_4
LBB17_4:
Ltmp60:
	leaq	-56(%rbp), %rdi
	callq	__ZNSt3__14__fs10filesystemL6existsERKNS1_4pathE
Ltmp61:
	movb	%al, -193(%rbp)         ## 1-byte Spill
	jmp	LBB17_5
LBB17_5:
	movb	-193(%rbp), %al         ## 1-byte Reload
	testb	$1, %al
	jne	LBB17_25
	jmp	LBB17_6
LBB17_6:
Ltmp62:
	leaq	-56(%rbp), %rdi
	callq	__ZNSt3__14__fs10filesystemL16create_directoryERKNS1_4pathE
Ltmp63:
	movb	%al, -194(%rbp)         ## 1-byte Spill
	jmp	LBB17_7
LBB17_7:
	movb	-194(%rbp), %al         ## 1-byte Reload
	testb	$1, %al
	jne	LBB17_8
	jmp	LBB17_21
LBB17_8:
Ltmp68:
	movq	__ZNSt3__14coutE@GOTPCREL(%rip), %rdi
	leaq	L_.str.12(%rip), %rsi
	callq	__ZNSt3__1lsINS_11char_traitsIcEEEERNS_13basic_ostreamIcT_EES6_PKc
Ltmp69:
	movq	%rax, -208(%rbp)        ## 8-byte Spill
	jmp	LBB17_9
LBB17_9:
Ltmp70:
	leaq	__ZNSt3__1L4endlIcNS_11char_traitsIcEEEERNS_13basic_ostreamIT_T0_EES7_(%rip), %rsi
	movq	-208(%rbp), %rdi        ## 8-byte Reload
	callq	__ZNSt3__113basic_ostreamIcNS_11char_traitsIcEEElsEPFRS3_S4_E
Ltmp71:
	jmp	LBB17_10
LBB17_10:
	jmp	LBB17_24
LBB17_11:
Ltmp52:
                                        ## kill: def $edx killed $edx killed $rdx
	movq	%rax, -88(%rbp)
	movl	%edx, -92(%rbp)
	leaq	-80(%rbp), %rdi
	callq	__ZNSt3__14__fs10filesystem4pathD1Ev
	jmp	LBB17_43
LBB17_12:
Ltmp55:
                                        ## kill: def $edx killed $edx killed $rdx
	movq	%rax, -88(%rbp)
	movl	%edx, -92(%rbp)
	jmp	LBB17_42
LBB17_13:
Ltmp93:
                                        ## kill: def $edx killed $edx killed $rdx
	movq	%rax, -88(%rbp)
	movl	%edx, -92(%rbp)
	jmp	LBB17_41
LBB17_14:
Ltmp78:
                                        ## kill: def $edx killed $edx killed $rdx
	movq	%rax, -88(%rbp)
	movl	%edx, -92(%rbp)
## %bb.15:
	movl	-92(%rbp), %eax
	movl	$1, %ecx
	cmpl	%ecx, %eax
	jne	LBB17_41
## %bb.16:
	movq	-88(%rbp), %rdi
	callq	___cxa_begin_catch
	movq	%rax, -168(%rbp)
Ltmp79:
	movq	__ZNSt3__14cerrE@GOTPCREL(%rip), %rdi
	leaq	-120(%rbp), %rsi
	callq	__ZNSt3__1lsIcNS_11char_traitsIcEENS_9allocatorIcEEEERNS_13basic_ostreamIT_T0_EES9_RKNS_12basic_stringIS6_S7_T1_EE
Ltmp80:
	movq	%rax, -216(%rbp)        ## 8-byte Spill
	jmp	LBB17_17
LBB17_17:
Ltmp81:
	leaq	L_.str.15(%rip), %rsi
	movq	-216(%rbp), %rdi        ## 8-byte Reload
	callq	__ZNSt3__1lsINS_11char_traitsIcEEEERNS_13basic_ostreamIcT_EES6_PKc
Ltmp82:
	movq	%rax, -224(%rbp)        ## 8-byte Spill
	jmp	LBB17_18
LBB17_18:
	movq	-168(%rbp), %rax
	movq	(%rax), %rcx
	movq	16(%rcx), %rcx
	movq	%rax, %rdi
	callq	*%rcx
Ltmp83:
	movq	-224(%rbp), %rdi        ## 8-byte Reload
	movq	%rax, %rsi
	callq	__ZNSt3__1lsINS_11char_traitsIcEEEERNS_13basic_ostreamIcT_EES6_PKc
Ltmp84:
	movq	%rax, -232(%rbp)        ## 8-byte Spill
	jmp	LBB17_19
LBB17_19:
Ltmp85:
	leaq	__ZNSt3__1L4endlIcNS_11char_traitsIcEEEERNS_13basic_ostreamIT_T0_EES7_(%rip), %rsi
	movq	-232(%rbp), %rdi        ## 8-byte Reload
	callq	__ZNSt3__113basic_ostreamIcNS_11char_traitsIcEEElsEPFRS3_S4_E
Ltmp86:
	jmp	LBB17_20
LBB17_20:
	movb	$0, -1(%rbp)
	movl	$1, -124(%rbp)
Ltmp91:
	callq	___cxa_end_catch
Ltmp92:
	jmp	LBB17_37
LBB17_21:
Ltmp64:
	movq	__ZNSt3__14coutE@GOTPCREL(%rip), %rdi
	leaq	L_.str.13(%rip), %rsi
	callq	__ZNSt3__1lsINS_11char_traitsIcEEEERNS_13basic_ostreamIcT_EES6_PKc
Ltmp65:
	movq	%rax, -240(%rbp)        ## 8-byte Spill
	jmp	LBB17_22
LBB17_22:
Ltmp66:
	leaq	__ZNSt3__1L4endlIcNS_11char_traitsIcEEEERNS_13basic_ostreamIT_T0_EES7_(%rip), %rsi
	movq	-240(%rbp), %rdi        ## 8-byte Reload
	callq	__ZNSt3__113basic_ostreamIcNS_11char_traitsIcEEElsEPFRS3_S4_E
Ltmp67:
	jmp	LBB17_23
LBB17_23:
	movb	$0, -1(%rbp)
	movl	$1, -124(%rbp)
	jmp	LBB17_39
LBB17_24:
	jmp	LBB17_28
LBB17_25:
Ltmp72:
	movq	__ZNSt3__14coutE@GOTPCREL(%rip), %rdi
	leaq	L_.str.14(%rip), %rsi
	callq	__ZNSt3__1lsINS_11char_traitsIcEEEERNS_13basic_ostreamIcT_EES6_PKc
Ltmp73:
	movq	%rax, -248(%rbp)        ## 8-byte Spill
	jmp	LBB17_26
LBB17_26:
Ltmp74:
	leaq	__ZNSt3__1L4endlIcNS_11char_traitsIcEEEERNS_13basic_ostreamIT_T0_EES7_(%rip), %rsi
	movq	-248(%rbp), %rdi        ## 8-byte Reload
	callq	__ZNSt3__113basic_ostreamIcNS_11char_traitsIcEEElsEPFRS3_S4_E
Ltmp75:
	jmp	LBB17_27
LBB17_27:
	jmp	LBB17_28
LBB17_28:
	movq	-24(%rbp), %rax
	addq	$24, %rax
	movq	%rax, -136(%rbp)
	movq	-136(%rbp), %rdi
	callq	__ZNKSt3__16vectorI13DirectoryNodeNS_9allocatorIS1_EEE5beginEv
	movq	%rax, -144(%rbp)
	movq	-136(%rbp), %rdi
	callq	__ZNKSt3__16vectorI13DirectoryNodeNS_9allocatorIS1_EEE3endEv
	movq	%rax, -152(%rbp)
LBB17_29:                               ## =>This Inner Loop Header: Depth=1
	leaq	-144(%rbp), %rdi
	leaq	-152(%rbp), %rsi
	callq	__ZNSt3__1neIPK13DirectoryNodeEEbRKNS_11__wrap_iterIT_EES8_
	testb	$1, %al
	jne	LBB17_30
	jmp	LBB17_35
LBB17_30:                               ##   in Loop: Header=BB17_29 Depth=1
	leaq	-144(%rbp), %rdi
	callq	__ZNKSt3__111__wrap_iterIPK13DirectoryNodeEdeEv
	movq	%rax, -160(%rbp)
	movq	-160(%rbp), %rsi
	movl	-28(%rbp), %ecx
	incl	%ecx
Ltmp76:
	leaq	-56(%rbp), %rdi
	movl	%ecx, %edx
	callq	__Z26create_directory_recursiveRKNSt3__14__fs10filesystem4pathERK13DirectoryNodei
Ltmp77:
	movb	%al, -249(%rbp)         ## 1-byte Spill
	jmp	LBB17_31
LBB17_31:                               ##   in Loop: Header=BB17_29 Depth=1
	movb	-249(%rbp), %al         ## 1-byte Reload
	testb	$1, %al
	jne	LBB17_33
	jmp	LBB17_32
LBB17_32:
	movb	$0, -1(%rbp)
	movl	$1, -124(%rbp)
	jmp	LBB17_39
LBB17_33:                               ##   in Loop: Header=BB17_29 Depth=1
	jmp	LBB17_34
LBB17_34:                               ##   in Loop: Header=BB17_29 Depth=1
	leaq	-144(%rbp), %rdi
	callq	__ZNSt3__111__wrap_iterIPK13DirectoryNodeEppEv
	jmp	LBB17_29
LBB17_35:
	movb	$1, -1(%rbp)
	movl	$1, -124(%rbp)
	jmp	LBB17_39
LBB17_36:
Ltmp87:
                                        ## kill: def $edx killed $edx killed $rdx
	movq	%rax, -88(%rbp)
	movl	%edx, -92(%rbp)
Ltmp88:
	callq	___cxa_end_catch
Ltmp89:
	jmp	LBB17_38
LBB17_37:
	jmp	LBB17_39
LBB17_38:
	jmp	LBB17_41
LBB17_39:
	leaq	-120(%rbp), %rdi
	callq	__ZNSt3__112basic_stringIcNS_11char_traitsIcEENS_9allocatorIcEEED1Ev
	leaq	-56(%rbp), %rdi
	callq	__ZNSt3__14__fs10filesystem4pathD1Ev
## %bb.40:
	movb	-1(%rbp), %al
	andb	$1, %al
	movzbl	%al, %eax
	addq	$272, %rsp              ## imm = 0x110
	popq	%rbp
	retq
LBB17_41:
	leaq	-120(%rbp), %rdi
	callq	__ZNSt3__112basic_stringIcNS_11char_traitsIcEENS_9allocatorIcEEED1Ev
LBB17_42:
	leaq	-56(%rbp), %rdi
	callq	__ZNSt3__14__fs10filesystem4pathD1Ev
LBB17_43:
	movq	-88(%rbp), %rdi
	callq	__Unwind_Resume
	ud2
LBB17_44:
Ltmp90:
	movq	%rax, %rdi
	movq	%rdx, -264(%rbp)        ## 8-byte Spill
	callq	___clang_call_terminate
## %bb.45:
	ud2
Lfunc_end3:
	.cfi_endproc
	.section	__TEXT,__gcc_except_tab
	.p2align	2
GCC_except_table17:
Lexception3:
	.byte	255                     ## @LPStart Encoding = omit
	.byte	155                     ## @TType Encoding = indirect pcrel sdata4
	.uleb128 Lttbase0-Lttbaseref0
Lttbaseref0:
	.byte	1                       ## Call site Encoding = uleb128
	.uleb128 Lcst_end3-Lcst_begin3
Lcst_begin3:
	.uleb128 Lfunc_begin3-Lfunc_begin3 ## >> Call Site 1 <<
	.uleb128 Ltmp50-Lfunc_begin3    ##   Call between Lfunc_begin3 and Ltmp50
	.byte	0                       ##     has no landing pad
	.byte	0                       ##   On action: cleanup
	.uleb128 Ltmp50-Lfunc_begin3    ## >> Call Site 2 <<
	.uleb128 Ltmp51-Ltmp50          ##   Call between Ltmp50 and Ltmp51
	.uleb128 Ltmp52-Lfunc_begin3    ##     jumps to Ltmp52
	.byte	0                       ##   On action: cleanup
	.uleb128 Ltmp53-Lfunc_begin3    ## >> Call Site 3 <<
	.uleb128 Ltmp54-Ltmp53          ##   Call between Ltmp53 and Ltmp54
	.uleb128 Ltmp55-Lfunc_begin3    ##     jumps to Ltmp55
	.byte	0                       ##   On action: cleanup
	.uleb128 Ltmp56-Lfunc_begin3    ## >> Call Site 4 <<
	.uleb128 Ltmp59-Ltmp56          ##   Call between Ltmp56 and Ltmp59
	.uleb128 Ltmp93-Lfunc_begin3    ##     jumps to Ltmp93
	.byte	0                       ##   On action: cleanup
	.uleb128 Ltmp60-Lfunc_begin3    ## >> Call Site 5 <<
	.uleb128 Ltmp71-Ltmp60          ##   Call between Ltmp60 and Ltmp71
	.uleb128 Ltmp78-Lfunc_begin3    ##     jumps to Ltmp78
	.byte	3                       ##   On action: 2
	.uleb128 Ltmp71-Lfunc_begin3    ## >> Call Site 6 <<
	.uleb128 Ltmp79-Ltmp71          ##   Call between Ltmp71 and Ltmp79
	.byte	0                       ##     has no landing pad
	.byte	0                       ##   On action: cleanup
	.uleb128 Ltmp79-Lfunc_begin3    ## >> Call Site 7 <<
	.uleb128 Ltmp82-Ltmp79          ##   Call between Ltmp79 and Ltmp82
	.uleb128 Ltmp87-Lfunc_begin3    ##     jumps to Ltmp87
	.byte	0                       ##   On action: cleanup
	.uleb128 Ltmp82-Lfunc_begin3    ## >> Call Site 8 <<
	.uleb128 Ltmp83-Ltmp82          ##   Call between Ltmp82 and Ltmp83
	.byte	0                       ##     has no landing pad
	.byte	0                       ##   On action: cleanup
	.uleb128 Ltmp83-Lfunc_begin3    ## >> Call Site 9 <<
	.uleb128 Ltmp86-Ltmp83          ##   Call between Ltmp83 and Ltmp86
	.uleb128 Ltmp87-Lfunc_begin3    ##     jumps to Ltmp87
	.byte	0                       ##   On action: cleanup
	.uleb128 Ltmp91-Lfunc_begin3    ## >> Call Site 10 <<
	.uleb128 Ltmp92-Ltmp91          ##   Call between Ltmp91 and Ltmp92
	.uleb128 Ltmp93-Lfunc_begin3    ##     jumps to Ltmp93
	.byte	0                       ##   On action: cleanup
	.uleb128 Ltmp64-Lfunc_begin3    ## >> Call Site 11 <<
	.uleb128 Ltmp77-Ltmp64          ##   Call between Ltmp64 and Ltmp77
	.uleb128 Ltmp78-Lfunc_begin3    ##     jumps to Ltmp78
	.byte	3                       ##   On action: 2
	.uleb128 Ltmp88-Lfunc_begin3    ## >> Call Site 12 <<
	.uleb128 Ltmp89-Ltmp88          ##   Call between Ltmp88 and Ltmp89
	.uleb128 Ltmp90-Lfunc_begin3    ##     jumps to Ltmp90
	.byte	5                       ##   On action: 3
	.uleb128 Ltmp89-Lfunc_begin3    ## >> Call Site 13 <<
	.uleb128 Lfunc_end3-Ltmp89      ##   Call between Ltmp89 and Lfunc_end3
	.byte	0                       ##     has no landing pad
	.byte	0                       ##   On action: cleanup
Lcst_end3:
	.byte	0                       ## >> Action Record 1 <<
                                        ##   Cleanup
	.byte	0                       ##   No further actions
	.byte	1                       ## >> Action Record 2 <<
                                        ##   Catch TypeInfo 1
	.byte	125                     ##   Continue to action 1
	.byte	2                       ## >> Action Record 3 <<
                                        ##   Catch TypeInfo 2
	.byte	0                       ##   No further actions
	.p2align	2
                                        ## >> Catch TypeInfos <<
	.long	0                       ## TypeInfo 2
	.long	__ZTINSt3__14__fs10filesystem16filesystem_errorE@GOTPCREL+4 ## TypeInfo 1
Lttbase0:
	.p2align	2
                                        ## -- End function
	.section	__TEXT,__text,regular,pure_instructions
	.p2align	4, 0x90         ## -- Begin function _ZNSt3__14__fs10filesystemdvERKNS1_4pathES4_
__ZNSt3__14__fs10filesystemdvERKNS1_4pathES4_: ## @_ZNSt3__14__fs10filesystemdvERKNS1_4pathES4_
Lfunc_begin4:
	.cfi_startproc
	.cfi_personality 155, ___gxx_personality_v0
	.cfi_lsda 16, Lexception4
## %bb.0:
	pushq	%rbp
	.cfi_def_cfa_offset 16
	.cfi_offset %rbp, -16
	movq	%rsp, %rbp
	.cfi_def_cfa_register %rbp
	subq	$64, %rsp
	movq	%rdi, %rax
	movq	%rdi, -8(%rbp)
	movq	%rsi, -16(%rbp)
	movq	%rdx, -24(%rbp)
	movb	$0, -25(%rbp)
	movq	-16(%rbp), %rsi
	movq	%rdi, -56(%rbp)         ## 8-byte Spill
	movq	%rax, -64(%rbp)         ## 8-byte Spill
	callq	__ZNSt3__14__fs10filesystem4pathC1ERKS2_
	movq	-24(%rbp), %rsi
Ltmp94:
	movq	-56(%rbp), %rdi         ## 8-byte Reload
	callq	__ZNSt3__14__fs10filesystem4pathdVERKS2_
Ltmp95:
	jmp	LBB18_1
LBB18_1:
	movb	$1, -25(%rbp)
	testb	$1, -25(%rbp)
	jne	LBB18_4
	jmp	LBB18_3
LBB18_2:
Ltmp96:
                                        ## kill: def $edx killed $edx killed $rdx
	movq	%rax, -40(%rbp)
	movl	%edx, -44(%rbp)
	movq	-56(%rbp), %rdi         ## 8-byte Reload
	callq	__ZNSt3__14__fs10filesystem4pathD1Ev
	jmp	LBB18_5
LBB18_3:
	movq	-56(%rbp), %rdi         ## 8-byte Reload
	callq	__ZNSt3__14__fs10filesystem4pathD1Ev
LBB18_4:
	movq	-64(%rbp), %rax         ## 8-byte Reload
	addq	$64, %rsp
	popq	%rbp
	retq
LBB18_5:
	movq	-40(%rbp), %rdi
	callq	__Unwind_Resume
	ud2
Lfunc_end4:
	.cfi_endproc
	.section	__TEXT,__gcc_except_tab
	.p2align	2
GCC_except_table18:
Lexception4:
	.byte	255                     ## @LPStart Encoding = omit
	.byte	255                     ## @TType Encoding = omit
	.byte	1                       ## Call site Encoding = uleb128
	.uleb128 Lcst_end4-Lcst_begin4
Lcst_begin4:
	.uleb128 Lfunc_begin4-Lfunc_begin4 ## >> Call Site 1 <<
	.uleb128 Ltmp94-Lfunc_begin4    ##   Call between Lfunc_begin4 and Ltmp94
	.byte	0                       ##     has no landing pad
	.byte	0                       ##   On action: cleanup
	.uleb128 Ltmp94-Lfunc_begin4    ## >> Call Site 2 <<
	.uleb128 Ltmp95-Ltmp94          ##   Call between Ltmp94 and Ltmp95
	.uleb128 Ltmp96-Lfunc_begin4    ##     jumps to Ltmp96
	.byte	0                       ##   On action: cleanup
	.uleb128 Ltmp95-Lfunc_begin4    ## >> Call Site 3 <<
	.uleb128 Lfunc_end4-Ltmp95      ##   Call between Ltmp95 and Lfunc_end4
	.byte	0                       ##     has no landing pad
	.byte	0                       ##   On action: cleanup
Lcst_end4:
	.p2align	2
                                        ## -- End function
	.section	__TEXT,__text,regular,pure_instructions
	.globl	__ZNSt3__14__fs10filesystem4pathC1INS_12basic_stringIcNS_11char_traitsIcEENS_9allocatorIcEEEEvEERKT_NS2_6formatE ## -- Begin function _ZNSt3__14__fs10filesystem4pathC1INS_12basic_stringIcNS_11char_traitsIcEENS_9allocatorIcEEEEvEERKT_NS2_6formatE
	.weak_def_can_be_hidden	__ZNSt3__14__fs10filesystem4pathC1INS_12basic_stringIcNS_11char_traitsIcEENS_9allocatorIcEEEEvEERKT_NS2_6formatE
	.p2align	4, 0x90
__ZNSt3__14__fs10filesystem4pathC1INS_12basic_stringIcNS_11char_traitsIcEENS_9allocatorIcEEEEvEERKT_NS2_6formatE: ## @_ZNSt3__14__fs10filesystem4pathC1INS_12basic_stringIcNS_11char_traitsIcEENS_9allocatorIcEEEEvEERKT_NS2_6formatE
	.cfi_startproc
## %bb.0:
	pushq	%rbp
	.cfi_def_cfa_offset 16
	.cfi_offset %rbp, -16
	movq	%rsp, %rbp
	.cfi_def_cfa_register %rbp
	subq	$32, %rsp
                                        ## kill: def $dl killed $dl killed $edx
	movq	%rdi, -8(%rbp)
	movq	%rsi, -16(%rbp)
	movb	%dl, -17(%rbp)
	movq	-8(%rbp), %rdi
	movq	-16(%rbp), %rsi
	movzbl	-17(%rbp), %edx
	callq	__ZNSt3__14__fs10filesystem4pathC2INS_12basic_stringIcNS_11char_traitsIcEENS_9allocatorIcEEEEvEERKT_NS2_6formatE
	addq	$32, %rsp
	popq	%rbp
	retq
	.cfi_endproc
                                        ## -- End function
	.p2align	4, 0x90         ## -- Begin function _ZNSt3__14__fs10filesystem4pathD1Ev
__ZNSt3__14__fs10filesystem4pathD1Ev:   ## @_ZNSt3__14__fs10filesystem4pathD1Ev
	.cfi_startproc
## %bb.0:
	pushq	%rbp
	.cfi_def_cfa_offset 16
	.cfi_offset %rbp, -16
	movq	%rsp, %rbp
	.cfi_def_cfa_register %rbp
	subq	$16, %rsp
	movq	%rdi, -8(%rbp)
	movq	-8(%rbp), %rdi
	callq	__ZNSt3__14__fs10filesystem4pathD2Ev
	addq	$16, %rsp
	popq	%rbp
	retq
	.cfi_endproc
                                        ## -- End function
	.p2align	4, 0x90         ## -- Begin function _ZNSt3__112basic_stringIcNS_11char_traitsIcEENS_9allocatorIcEEEC1Emc
__ZNSt3__112basic_stringIcNS_11char_traitsIcEENS_9allocatorIcEEEC1Emc: ## @_ZNSt3__112basic_stringIcNS_11char_traitsIcEENS_9allocatorIcEEEC1Emc
	.cfi_startproc
## %bb.0:
	pushq	%rbp
	.cfi_def_cfa_offset 16
	.cfi_offset %rbp, -16
	movq	%rsp, %rbp
	.cfi_def_cfa_register %rbp
	subq	$32, %rsp
                                        ## kill: def $dl killed $dl killed $edx
	movq	%rdi, -8(%rbp)
	movq	%rsi, -16(%rbp)
	movb	%dl, -17(%rbp)
	movq	-8(%rbp), %rdi
	movq	-16(%rbp), %rsi
	movsbl	-17(%rbp), %edx
	callq	__ZNSt3__112basic_stringIcNS_11char_traitsIcEENS_9allocatorIcEEEC2Emc
	addq	$32, %rsp
	popq	%rbp
	retq
	.cfi_endproc
                                        ## -- End function
	.globl	__ZNSt3__1lsIcNS_11char_traitsIcEENS_9allocatorIcEEEERNS_13basic_ostreamIT_T0_EES9_RKNS_12basic_stringIS6_S7_T1_EE ## -- Begin function _ZNSt3__1lsIcNS_11char_traitsIcEENS_9allocatorIcEEEERNS_13basic_ostreamIT_T0_EES9_RKNS_12basic_stringIS6_S7_T1_EE
	.weak_definition	__ZNSt3__1lsIcNS_11char_traitsIcEENS_9allocatorIcEEEERNS_13basic_ostreamIT_T0_EES9_RKNS_12basic_stringIS6_S7_T1_EE
	.p2align	4, 0x90
__ZNSt3__1lsIcNS_11char_traitsIcEENS_9allocatorIcEEEERNS_13basic_ostreamIT_T0_EES9_RKNS_12basic_stringIS6_S7_T1_EE: ## @_ZNSt3__1lsIcNS_11char_traitsIcEENS_9allocatorIcEEEERNS_13basic_ostreamIT_T0_EES9_RKNS_12basic_stringIS6_S7_T1_EE
	.cfi_startproc
## %bb.0:
	pushq	%rbp
	.cfi_def_cfa_offset 16
	.cfi_offset %rbp, -16
	movq	%rsp, %rbp
	.cfi_def_cfa_register %rbp
	subq	$32, %rsp
	movq	%rdi, -8(%rbp)
	movq	%rsi, -16(%rbp)
	movq	-8(%rbp), %rdi
	movq	-16(%rbp), %rax
	movq	%rdi, -24(%rbp)         ## 8-byte Spill
	movq	%rax, %rdi
	callq	__ZNKSt3__112basic_stringIcNS_11char_traitsIcEENS_9allocatorIcEEE4dataEv
	movq	-16(%rbp), %rdi
	movq	%rax, -32(%rbp)         ## 8-byte Spill
	callq	__ZNKSt3__112basic_stringIcNS_11char_traitsIcEENS_9allocatorIcEEE4sizeEv
	movq	-24(%rbp), %rdi         ## 8-byte Reload
	movq	-32(%rbp), %rsi         ## 8-byte Reload
	movq	%rax, %rdx
	callq	__ZNSt3__124__put_character_sequenceIcNS_11char_traitsIcEEEERNS_13basic_ostreamIT_T0_EES7_PKS4_m
	addq	$32, %rsp
	popq	%rbp
	retq
	.cfi_endproc
                                        ## -- End function
	.p2align	4, 0x90         ## -- Begin function _ZNSt3__14__fs10filesystemL6existsERKNS1_4pathE
__ZNSt3__14__fs10filesystemL6existsERKNS1_4pathE: ## @_ZNSt3__14__fs10filesystemL6existsERKNS1_4pathE
	.cfi_startproc
## %bb.0:
	pushq	%rbp
	.cfi_def_cfa_offset 16
	.cfi_offset %rbp, -16
	movq	%rsp, %rbp
	.cfi_def_cfa_register %rbp
	subq	$32, %rsp
	xorl	%eax, %eax
	movl	%eax, %edx
	movq	%rdi, -8(%rbp)
	movq	-8(%rbp), %rsi
	leaq	-16(%rbp), %rdi
	callq	__ZNSt3__14__fs10filesystem8__statusERKNS1_4pathEPNS_10error_codeE
	leaq	-16(%rbp), %rdi
	callq	__ZNSt3__14__fs10filesystemL6existsENS1_11file_statusE
	leaq	-16(%rbp), %rdi
	movb	%al, -17(%rbp)          ## 1-byte Spill
	callq	__ZNSt3__14__fs10filesystem11file_statusD1Ev
	movb	-17(%rbp), %al          ## 1-byte Reload
	andb	$1, %al
	movzbl	%al, %eax
	addq	$32, %rsp
	popq	%rbp
	retq
	.cfi_endproc
                                        ## -- End function
	.p2align	4, 0x90         ## -- Begin function _ZNSt3__14__fs10filesystemL16create_directoryERKNS1_4pathE
__ZNSt3__14__fs10filesystemL16create_directoryERKNS1_4pathE: ## @_ZNSt3__14__fs10filesystemL16create_directoryERKNS1_4pathE
	.cfi_startproc
## %bb.0:
	pushq	%rbp
	.cfi_def_cfa_offset 16
	.cfi_offset %rbp, -16
	movq	%rsp, %rbp
	.cfi_def_cfa_register %rbp
	subq	$16, %rsp
	xorl	%eax, %eax
	movl	%eax, %esi
	movq	%rdi, -8(%rbp)
	movq	-8(%rbp), %rdi
	callq	__ZNSt3__14__fs10filesystem18__create_directoryERKNS1_4pathEPNS_10error_codeE
	andb	$1, %al
	movzbl	%al, %eax
	addq	$16, %rsp
	popq	%rbp
	retq
	.cfi_endproc
                                        ## -- End function
	.globl	__ZNSt3__1lsINS_11char_traitsIcEEEERNS_13basic_ostreamIcT_EES6_PKc ## -- Begin function _ZNSt3__1lsINS_11char_traitsIcEEEERNS_13basic_ostreamIcT_EES6_PKc
	.weak_definition	__ZNSt3__1lsINS_11char_traitsIcEEEERNS_13basic_ostreamIcT_EES6_PKc
	.p2align	4, 0x90
__ZNSt3__1lsINS_11char_traitsIcEEEERNS_13basic_ostreamIcT_EES6_PKc: ## @_ZNSt3__1lsINS_11char_traitsIcEEEERNS_13basic_ostreamIcT_EES6_PKc
	.cfi_startproc
## %bb.0:
	pushq	%rbp
	.cfi_def_cfa_offset 16
	.cfi_offset %rbp, -16
	movq	%rsp, %rbp
	.cfi_def_cfa_register %rbp
	subq	$32, %rsp
	movq	%rdi, -8(%rbp)
	movq	%rsi, -16(%rbp)
	movq	-8(%rbp), %rdi
	movq	-16(%rbp), %rsi
	movq	-16(%rbp), %rax
	movq	%rdi, -24(%rbp)         ## 8-byte Spill
	movq	%rax, %rdi
	movq	%rsi, -32(%rbp)         ## 8-byte Spill
	callq	__ZNSt3__111char_traitsIcE6lengthEPKc
	movq	-24(%rbp), %rdi         ## 8-byte Reload
	movq	-32(%rbp), %rsi         ## 8-byte Reload
	movq	%rax, %rdx
	callq	__ZNSt3__124__put_character_sequenceIcNS_11char_traitsIcEEEERNS_13basic_ostreamIT_T0_EES7_PKS4_m
	addq	$32, %rsp
	popq	%rbp
	retq
	.cfi_endproc
                                        ## -- End function
	.p2align	4, 0x90         ## -- Begin function _ZNSt3__113basic_ostreamIcNS_11char_traitsIcEEElsEPFRS3_S4_E
__ZNSt3__113basic_ostreamIcNS_11char_traitsIcEEElsEPFRS3_S4_E: ## @_ZNSt3__113basic_ostreamIcNS_11char_traitsIcEEElsEPFRS3_S4_E
	.cfi_startproc
## %bb.0:
	pushq	%rbp
	.cfi_def_cfa_offset 16
	.cfi_offset %rbp, -16
	movq	%rsp, %rbp
	.cfi_def_cfa_register %rbp
	subq	$16, %rsp
	movq	%rdi, -8(%rbp)
	movq	%rsi, -16(%rbp)
	movq	-8(%rbp), %rdi
	callq	*-16(%rbp)
	addq	$16, %rsp
	popq	%rbp
	retq
	.cfi_endproc
                                        ## -- End function
	.p2align	4, 0x90         ## -- Begin function _ZNSt3__1L4endlIcNS_11char_traitsIcEEEERNS_13basic_ostreamIT_T0_EES7_
__ZNSt3__1L4endlIcNS_11char_traitsIcEEEERNS_13basic_ostreamIT_T0_EES7_: ## @_ZNSt3__1L4endlIcNS_11char_traitsIcEEEERNS_13basic_ostreamIT_T0_EES7_
	.cfi_startproc
## %bb.0:
	pushq	%rbp
	.cfi_def_cfa_offset 16
	.cfi_offset %rbp, -16
	movq	%rsp, %rbp
	.cfi_def_cfa_register %rbp
	subq	$32, %rsp
	movq	%rdi, -8(%rbp)
	movq	-8(%rbp), %rdi
	movq	-8(%rbp), %rax
	movq	(%rax), %rcx
	movq	-24(%rcx), %rcx
	addq	%rcx, %rax
	movq	%rdi, -16(%rbp)         ## 8-byte Spill
	movq	%rax, %rdi
	movl	$10, %esi
	callq	__ZNKSt3__19basic_iosIcNS_11char_traitsIcEEE5widenEc
	movq	-16(%rbp), %rdi         ## 8-byte Reload
	movsbl	%al, %esi
	callq	__ZNSt3__113basic_ostreamIcNS_11char_traitsIcEEE3putEc
	movq	-8(%rbp), %rdi
	movq	%rax, -24(%rbp)         ## 8-byte Spill
	callq	__ZNSt3__113basic_ostreamIcNS_11char_traitsIcEEE5flushEv
	movq	-8(%rbp), %rcx
	movq	%rax, -32(%rbp)         ## 8-byte Spill
	movq	%rcx, %rax
	addq	$32, %rsp
	popq	%rbp
	retq
	.cfi_endproc
                                        ## -- End function
	.p2align	4, 0x90         ## -- Begin function _ZNKSt3__16vectorI13DirectoryNodeNS_9allocatorIS1_EEE5beginEv
__ZNKSt3__16vectorI13DirectoryNodeNS_9allocatorIS1_EEE5beginEv: ## @_ZNKSt3__16vectorI13DirectoryNodeNS_9allocatorIS1_EEE5beginEv
	.cfi_startproc
## %bb.0:
	pushq	%rbp
	.cfi_def_cfa_offset 16
	.cfi_offset %rbp, -16
	movq	%rsp, %rbp
	.cfi_def_cfa_register %rbp
	subq	$16, %rsp
	movq	%rdi, -16(%rbp)
	movq	-16(%rbp), %rax
	movq	(%rax), %rsi
	movq	%rax, %rdi
	callq	__ZNKSt3__16vectorI13DirectoryNodeNS_9allocatorIS1_EEE11__make_iterEPKS1_
	movq	%rax, -8(%rbp)
	movq	-8(%rbp), %rax
	addq	$16, %rsp
	popq	%rbp
	retq
	.cfi_endproc
                                        ## -- End function
	.p2align	4, 0x90         ## -- Begin function _ZNKSt3__16vectorI13DirectoryNodeNS_9allocatorIS1_EEE3endEv
__ZNKSt3__16vectorI13DirectoryNodeNS_9allocatorIS1_EEE3endEv: ## @_ZNKSt3__16vectorI13DirectoryNodeNS_9allocatorIS1_EEE3endEv
	.cfi_startproc
## %bb.0:
	pushq	%rbp
	.cfi_def_cfa_offset 16
	.cfi_offset %rbp, -16
	movq	%rsp, %rbp
	.cfi_def_cfa_register %rbp
	subq	$16, %rsp
	movq	%rdi, -16(%rbp)
	movq	-16(%rbp), %rax
	movq	8(%rax), %rsi
	movq	%rax, %rdi
	callq	__ZNKSt3__16vectorI13DirectoryNodeNS_9allocatorIS1_EEE11__make_iterEPKS1_
	movq	%rax, -8(%rbp)
	movq	-8(%rbp), %rax
	addq	$16, %rsp
	popq	%rbp
	retq
	.cfi_endproc
                                        ## -- End function
	.p2align	4, 0x90         ## -- Begin function _ZNSt3__1neIPK13DirectoryNodeEEbRKNS_11__wrap_iterIT_EES8_
__ZNSt3__1neIPK13DirectoryNodeEEbRKNS_11__wrap_iterIT_EES8_: ## @_ZNSt3__1neIPK13DirectoryNodeEEbRKNS_11__wrap_iterIT_EES8_
	.cfi_startproc
## %bb.0:
	pushq	%rbp
	.cfi_def_cfa_offset 16
	.cfi_offset %rbp, -16
	movq	%rsp, %rbp
	.cfi_def_cfa_register %rbp
	subq	$16, %rsp
	movq	%rdi, -8(%rbp)
	movq	%rsi, -16(%rbp)
	movq	-8(%rbp), %rdi
	movq	-16(%rbp), %rsi
	callq	__ZNSt3__1eqIPK13DirectoryNodeS3_EEbRKNS_11__wrap_iterIT_EERKNS4_IT0_EE
	xorb	$-1, %al
	andb	$1, %al
	movzbl	%al, %eax
	addq	$16, %rsp
	popq	%rbp
	retq
	.cfi_endproc
                                        ## -- End function
	.p2align	4, 0x90         ## -- Begin function _ZNKSt3__111__wrap_iterIPK13DirectoryNodeEdeEv
__ZNKSt3__111__wrap_iterIPK13DirectoryNodeEdeEv: ## @_ZNKSt3__111__wrap_iterIPK13DirectoryNodeEdeEv
	.cfi_startproc
## %bb.0:
	pushq	%rbp
	.cfi_def_cfa_offset 16
	.cfi_offset %rbp, -16
	movq	%rsp, %rbp
	.cfi_def_cfa_register %rbp
	movq	%rdi, -8(%rbp)
	movq	-8(%rbp), %rax
	movq	(%rax), %rax
	popq	%rbp
	retq
	.cfi_endproc
                                        ## -- End function
	.p2align	4, 0x90         ## -- Begin function _ZNSt3__111__wrap_iterIPK13DirectoryNodeEppEv
__ZNSt3__111__wrap_iterIPK13DirectoryNodeEppEv: ## @_ZNSt3__111__wrap_iterIPK13DirectoryNodeEppEv
	.cfi_startproc
## %bb.0:
	pushq	%rbp
	.cfi_def_cfa_offset 16
	.cfi_offset %rbp, -16
	movq	%rsp, %rbp
	.cfi_def_cfa_register %rbp
	movq	%rdi, -8(%rbp)
	movq	-8(%rbp), %rax
	movq	(%rax), %rcx
	addq	$48, %rcx
	movq	%rcx, (%rax)
	popq	%rbp
	retq
	.cfi_endproc
                                        ## -- End function
	.private_extern	___clang_call_terminate ## -- Begin function __clang_call_terminate
	.globl	___clang_call_terminate
	.weak_definition	___clang_call_terminate
	.p2align	4, 0x90
___clang_call_terminate:                ## @__clang_call_terminate
## %bb.0:
	pushq	%rax
	callq	___cxa_begin_catch
	movq	%rax, (%rsp)            ## 8-byte Spill
	callq	__ZSt9terminatev
                                        ## -- End function
	.globl	__Z25generate_c_cpp_propertiesRKNSt3__14__fs10filesystem4pathE ## -- Begin function _Z25generate_c_cpp_propertiesRKNSt3__14__fs10filesystem4pathE
	.p2align	4, 0x90
__Z25generate_c_cpp_propertiesRKNSt3__14__fs10filesystem4pathE: ## @_Z25generate_c_cpp_propertiesRKNSt3__14__fs10filesystem4pathE
Lfunc_begin5:
	.cfi_startproc
	.cfi_personality 155, ___gxx_personality_v0
	.cfi_lsda 16, Lexception5
## %bb.0:
	pushq	%rbp
	.cfi_def_cfa_offset 16
	.cfi_offset %rbp, -16
	movq	%rsp, %rbp
	.cfi_def_cfa_register %rbp
	subq	$672, %rsp              ## imm = 0x2A0
	movq	___stack_chk_guard@GOTPCREL(%rip), %rax
	movq	(%rax), %rax
	movq	%rax, -8(%rbp)
	movq	%rdi, -584(%rbp)
	movq	-584(%rbp), %rsi
	leaq	L_.str.16(%rip), %rax
	leaq	-632(%rbp), %rcx
	xorl	%edx, %edx
	movq	%rcx, %rdi
	movq	%rsi, -656(%rbp)        ## 8-byte Spill
	movq	%rax, %rsi
	movq	%rcx, -664(%rbp)        ## 8-byte Spill
	callq	__ZNSt3__14__fs10filesystem4pathC1IA22_cvEERKT_NS2_6formatE
Ltmp97:
	leaq	-608(%rbp), %rdi
	movq	-656(%rbp), %rsi        ## 8-byte Reload
	movq	-664(%rbp), %rdx        ## 8-byte Reload
	callq	__ZNSt3__14__fs10filesystemdvERKNS1_4pathES4_
Ltmp98:
	jmp	LBB34_1
LBB34_1:
Ltmp100:
	leaq	-576(%rbp), %rdi
	leaq	-608(%rbp), %rsi
	movl	$16, %edx
	callq	__ZNSt3__114basic_ofstreamIcNS_11char_traitsIcEEEC1ERKNS_4__fs10filesystem4pathEj
Ltmp101:
	jmp	LBB34_2
LBB34_2:
	leaq	-608(%rbp), %rdi
	callq	__ZNSt3__14__fs10filesystem4pathD1Ev
	leaq	-632(%rbp), %rdi
	callq	__ZNSt3__14__fs10filesystem4pathD1Ev
Ltmp103:
	leaq	L_.str.17(%rip), %rsi
	leaq	-576(%rbp), %rdi
	callq	__ZNSt3__1lsINS_11char_traitsIcEEEERNS_13basic_ostreamIcT_EES6_PKc
Ltmp104:
	jmp	LBB34_3
LBB34_3:
	leaq	-576(%rbp), %rdi
	callq	__ZNSt3__114basic_ofstreamIcNS_11char_traitsIcEEED1Ev
	movq	___stack_chk_guard@GOTPCREL(%rip), %rax
	movq	(%rax), %rax
	movq	-8(%rbp), %rcx
	cmpq	%rcx, %rax
	jne	LBB34_10
## %bb.4:
	addq	$672, %rsp              ## imm = 0x2A0
	popq	%rbp
	retq
LBB34_5:
Ltmp99:
                                        ## kill: def $edx killed $edx killed $rdx
	movq	%rax, -640(%rbp)
	movl	%edx, -644(%rbp)
	jmp	LBB34_7
LBB34_6:
Ltmp102:
                                        ## kill: def $edx killed $edx killed $rdx
	movq	%rax, -640(%rbp)
	movl	%edx, -644(%rbp)
	leaq	-608(%rbp), %rdi
	callq	__ZNSt3__14__fs10filesystem4pathD1Ev
LBB34_7:
	leaq	-632(%rbp), %rdi
	callq	__ZNSt3__14__fs10filesystem4pathD1Ev
	jmp	LBB34_9
LBB34_8:
Ltmp105:
                                        ## kill: def $edx killed $edx killed $rdx
	movq	%rax, -640(%rbp)
	movl	%edx, -644(%rbp)
	leaq	-576(%rbp), %rdi
	callq	__ZNSt3__114basic_ofstreamIcNS_11char_traitsIcEEED1Ev
LBB34_9:
	movq	-640(%rbp), %rdi
	callq	__Unwind_Resume
	ud2
LBB34_10:
	callq	___stack_chk_fail
	ud2
Lfunc_end5:
	.cfi_endproc
	.section	__TEXT,__gcc_except_tab
	.p2align	2
GCC_except_table34:
Lexception5:
	.byte	255                     ## @LPStart Encoding = omit
	.byte	255                     ## @TType Encoding = omit
	.byte	1                       ## Call site Encoding = uleb128
	.uleb128 Lcst_end5-Lcst_begin5
Lcst_begin5:
	.uleb128 Lfunc_begin5-Lfunc_begin5 ## >> Call Site 1 <<
	.uleb128 Ltmp97-Lfunc_begin5    ##   Call between Lfunc_begin5 and Ltmp97
	.byte	0                       ##     has no landing pad
	.byte	0                       ##   On action: cleanup
	.uleb128 Ltmp97-Lfunc_begin5    ## >> Call Site 2 <<
	.uleb128 Ltmp98-Ltmp97          ##   Call between Ltmp97 and Ltmp98
	.uleb128 Ltmp99-Lfunc_begin5    ##     jumps to Ltmp99
	.byte	0                       ##   On action: cleanup
	.uleb128 Ltmp100-Lfunc_begin5   ## >> Call Site 3 <<
	.uleb128 Ltmp101-Ltmp100        ##   Call between Ltmp100 and Ltmp101
	.uleb128 Ltmp102-Lfunc_begin5   ##     jumps to Ltmp102
	.byte	0                       ##   On action: cleanup
	.uleb128 Ltmp103-Lfunc_begin5   ## >> Call Site 4 <<
	.uleb128 Ltmp104-Ltmp103        ##   Call between Ltmp103 and Ltmp104
	.uleb128 Ltmp105-Lfunc_begin5   ##     jumps to Ltmp105
	.byte	0                       ##   On action: cleanup
	.uleb128 Ltmp104-Lfunc_begin5   ## >> Call Site 5 <<
	.uleb128 Lfunc_end5-Ltmp104     ##   Call between Ltmp104 and Lfunc_end5
	.byte	0                       ##     has no landing pad
	.byte	0                       ##   On action: cleanup
Lcst_end5:
	.p2align	2
                                        ## -- End function
	.section	__TEXT,__text,regular,pure_instructions
	.globl	__ZNSt3__14__fs10filesystem4pathC1IA22_cvEERKT_NS2_6formatE ## -- Begin function _ZNSt3__14__fs10filesystem4pathC1IA22_cvEERKT_NS2_6formatE
	.weak_def_can_be_hidden	__ZNSt3__14__fs10filesystem4pathC1IA22_cvEERKT_NS2_6formatE
	.p2align	4, 0x90
__ZNSt3__14__fs10filesystem4pathC1IA22_cvEERKT_NS2_6formatE: ## @_ZNSt3__14__fs10filesystem4pathC1IA22_cvEERKT_NS2_6formatE
	.cfi_startproc
## %bb.0:
	pushq	%rbp
	.cfi_def_cfa_offset 16
	.cfi_offset %rbp, -16
	movq	%rsp, %rbp
	.cfi_def_cfa_register %rbp
	subq	$32, %rsp
                                        ## kill: def $dl killed $dl killed $edx
	movq	%rdi, -8(%rbp)
	movq	%rsi, -16(%rbp)
	movb	%dl, -17(%rbp)
	movq	-8(%rbp), %rdi
	movq	-16(%rbp), %rsi
	movzbl	-17(%rbp), %edx
	callq	__ZNSt3__14__fs10filesystem4pathC2IA22_cvEERKT_NS2_6formatE
	addq	$32, %rsp
	popq	%rbp
	retq
	.cfi_endproc
                                        ## -- End function
	.p2align	4, 0x90         ## -- Begin function _ZNSt3__114basic_ofstreamIcNS_11char_traitsIcEEEC1ERKNS_4__fs10filesystem4pathEj
__ZNSt3__114basic_ofstreamIcNS_11char_traitsIcEEEC1ERKNS_4__fs10filesystem4pathEj: ## @_ZNSt3__114basic_ofstreamIcNS_11char_traitsIcEEEC1ERKNS_4__fs10filesystem4pathEj
	.cfi_startproc
## %bb.0:
	pushq	%rbp
	.cfi_def_cfa_offset 16
	.cfi_offset %rbp, -16
	movq	%rsp, %rbp
	.cfi_def_cfa_register %rbp
	subq	$32, %rsp
	movq	%rdi, -8(%rbp)
	movq	%rsi, -16(%rbp)
	movl	%edx, -20(%rbp)
	movq	-8(%rbp), %rdi
	movq	-16(%rbp), %rax
	movq	%rdi, -32(%rbp)         ## 8-byte Spill
	movq	%rax, %rdi
	callq	__ZNKSt3__14__fs10filesystem4path5c_strEv
	movl	-20(%rbp), %edx
	movq	-32(%rbp), %rdi         ## 8-byte Reload
	movq	%rax, %rsi
	callq	__ZNSt3__114basic_ofstreamIcNS_11char_traitsIcEEEC1EPKcj
	addq	$32, %rsp
	popq	%rbp
	retq
	.cfi_endproc
                                        ## -- End function
	.globl	__ZNSt3__114basic_ofstreamIcNS_11char_traitsIcEEED1Ev ## -- Begin function _ZNSt3__114basic_ofstreamIcNS_11char_traitsIcEEED1Ev
	.weak_def_can_be_hidden	__ZNSt3__114basic_ofstreamIcNS_11char_traitsIcEEED1Ev
	.p2align	4, 0x90
__ZNSt3__114basic_ofstreamIcNS_11char_traitsIcEEED1Ev: ## @_ZNSt3__114basic_ofstreamIcNS_11char_traitsIcEEED1Ev
	.cfi_startproc
## %bb.0:
	pushq	%rbp
	.cfi_def_cfa_offset 16
	.cfi_offset %rbp, -16
	movq	%rsp, %rbp
	.cfi_def_cfa_register %rbp
	subq	$16, %rsp
	movq	__ZTTNSt3__114basic_ofstreamIcNS_11char_traitsIcEEEE@GOTPCREL(%rip), %rsi
	movq	%rdi, -8(%rbp)
	movq	-8(%rbp), %rax
	movq	%rax, %rdi
	movq	%rax, -16(%rbp)         ## 8-byte Spill
	callq	__ZNSt3__114basic_ofstreamIcNS_11char_traitsIcEEED2Ev
	movq	-16(%rbp), %rax         ## 8-byte Reload
	addq	$416, %rax              ## imm = 0x1A0
	movq	%rax, %rdi
	callq	__ZNSt3__19basic_iosIcNS_11char_traitsIcEEED2Ev
	addq	$16, %rsp
	popq	%rbp
	retq
	.cfi_endproc
                                        ## -- End function
	.globl	__Z19generate_tasks_jsonRKNSt3__14__fs10filesystem4pathERKNS_12basic_stringIcNS_11char_traitsIcEENS_9allocatorIcEEEE ## -- Begin function _Z19generate_tasks_jsonRKNSt3__14__fs10filesystem4pathERKNS_12basic_stringIcNS_11char_traitsIcEENS_9allocatorIcEEEE
	.p2align	4, 0x90
__Z19generate_tasks_jsonRKNSt3__14__fs10filesystem4pathERKNS_12basic_stringIcNS_11char_traitsIcEENS_9allocatorIcEEEE: ## @_Z19generate_tasks_jsonRKNSt3__14__fs10filesystem4pathERKNS_12basic_stringIcNS_11char_traitsIcEENS_9allocatorIcEEEE
Lfunc_begin6:
	.cfi_startproc
	.cfi_personality 155, ___gxx_personality_v0
	.cfi_lsda 16, Lexception6
## %bb.0:
	pushq	%rbp
	.cfi_def_cfa_offset 16
	.cfi_offset %rbp, -16
	movq	%rsp, %rbp
	.cfi_def_cfa_register %rbp
	subq	$688, %rsp              ## imm = 0x2B0
	movq	___stack_chk_guard@GOTPCREL(%rip), %rax
	movq	(%rax), %rax
	movq	%rax, -8(%rbp)
	movq	%rdi, -584(%rbp)
	movq	%rsi, -592(%rbp)
	movq	-584(%rbp), %rsi
	leaq	L_.str.18(%rip), %rax
	leaq	-640(%rbp), %rcx
	xorl	%edx, %edx
	movq	%rcx, %rdi
	movq	%rsi, -664(%rbp)        ## 8-byte Spill
	movq	%rax, %rsi
	movq	%rcx, -672(%rbp)        ## 8-byte Spill
	callq	__ZNSt3__14__fs10filesystem4pathC1IA11_cvEERKT_NS2_6formatE
Ltmp106:
	leaq	-616(%rbp), %rdi
	movq	-664(%rbp), %rsi        ## 8-byte Reload
	movq	-672(%rbp), %rdx        ## 8-byte Reload
	callq	__ZNSt3__14__fs10filesystemdvERKNS1_4pathES4_
Ltmp107:
	jmp	LBB38_1
LBB38_1:
Ltmp109:
	leaq	-576(%rbp), %rdi
	leaq	-616(%rbp), %rsi
	movl	$16, %edx
	callq	__ZNSt3__114basic_ofstreamIcNS_11char_traitsIcEEEC1ERKNS_4__fs10filesystem4pathEj
Ltmp110:
	jmp	LBB38_2
LBB38_2:
	leaq	-616(%rbp), %rdi
	callq	__ZNSt3__14__fs10filesystem4pathD1Ev
	leaq	-640(%rbp), %rdi
	callq	__ZNSt3__14__fs10filesystem4pathD1Ev
Ltmp112:
	leaq	L_.str.19(%rip), %rsi
	leaq	-576(%rbp), %rdi
	callq	__ZNSt3__1lsINS_11char_traitsIcEEEERNS_13basic_ostreamIcT_EES6_PKc
Ltmp113:
	movq	%rax, -680(%rbp)        ## 8-byte Spill
	jmp	LBB38_3
LBB38_3:
	movq	-592(%rbp), %rsi
Ltmp114:
	movq	-680(%rbp), %rdi        ## 8-byte Reload
	callq	__ZNSt3__1lsIcNS_11char_traitsIcEENS_9allocatorIcEEEERNS_13basic_ostreamIT_T0_EES9_RKNS_12basic_stringIS6_S7_T1_EE
Ltmp115:
	movq	%rax, -688(%rbp)        ## 8-byte Spill
	jmp	LBB38_4
LBB38_4:
Ltmp116:
	leaq	L_.str.20(%rip), %rsi
	movq	-688(%rbp), %rdi        ## 8-byte Reload
	callq	__ZNSt3__1lsINS_11char_traitsIcEEEERNS_13basic_ostreamIcT_EES6_PKc
Ltmp117:
	jmp	LBB38_5
LBB38_5:
	leaq	-576(%rbp), %rdi
	callq	__ZNSt3__114basic_ofstreamIcNS_11char_traitsIcEEED1Ev
	movq	___stack_chk_guard@GOTPCREL(%rip), %rax
	movq	(%rax), %rax
	movq	-8(%rbp), %rcx
	cmpq	%rcx, %rax
	jne	LBB38_12
## %bb.6:
	addq	$688, %rsp              ## imm = 0x2B0
	popq	%rbp
	retq
LBB38_7:
Ltmp108:
                                        ## kill: def $edx killed $edx killed $rdx
	movq	%rax, -648(%rbp)
	movl	%edx, -652(%rbp)
	jmp	LBB38_9
LBB38_8:
Ltmp111:
                                        ## kill: def $edx killed $edx killed $rdx
	movq	%rax, -648(%rbp)
	movl	%edx, -652(%rbp)
	leaq	-616(%rbp), %rdi
	callq	__ZNSt3__14__fs10filesystem4pathD1Ev
LBB38_9:
	leaq	-640(%rbp), %rdi
	callq	__ZNSt3__14__fs10filesystem4pathD1Ev
	jmp	LBB38_11
LBB38_10:
Ltmp118:
                                        ## kill: def $edx killed $edx killed $rdx
	movq	%rax, -648(%rbp)
	movl	%edx, -652(%rbp)
	leaq	-576(%rbp), %rdi
	callq	__ZNSt3__114basic_ofstreamIcNS_11char_traitsIcEEED1Ev
LBB38_11:
	movq	-648(%rbp), %rdi
	callq	__Unwind_Resume
	ud2
LBB38_12:
	callq	___stack_chk_fail
	ud2
Lfunc_end6:
	.cfi_endproc
	.section	__TEXT,__gcc_except_tab
	.p2align	2
GCC_except_table38:
Lexception6:
	.byte	255                     ## @LPStart Encoding = omit
	.byte	255                     ## @TType Encoding = omit
	.byte	1                       ## Call site Encoding = uleb128
	.uleb128 Lcst_end6-Lcst_begin6
Lcst_begin6:
	.uleb128 Lfunc_begin6-Lfunc_begin6 ## >> Call Site 1 <<
	.uleb128 Ltmp106-Lfunc_begin6   ##   Call between Lfunc_begin6 and Ltmp106
	.byte	0                       ##     has no landing pad
	.byte	0                       ##   On action: cleanup
	.uleb128 Ltmp106-Lfunc_begin6   ## >> Call Site 2 <<
	.uleb128 Ltmp107-Ltmp106        ##   Call between Ltmp106 and Ltmp107
	.uleb128 Ltmp108-Lfunc_begin6   ##     jumps to Ltmp108
	.byte	0                       ##   On action: cleanup
	.uleb128 Ltmp109-Lfunc_begin6   ## >> Call Site 3 <<
	.uleb128 Ltmp110-Ltmp109        ##   Call between Ltmp109 and Ltmp110
	.uleb128 Ltmp111-Lfunc_begin6   ##     jumps to Ltmp111
	.byte	0                       ##   On action: cleanup
	.uleb128 Ltmp112-Lfunc_begin6   ## >> Call Site 4 <<
	.uleb128 Ltmp117-Ltmp112        ##   Call between Ltmp112 and Ltmp117
	.uleb128 Ltmp118-Lfunc_begin6   ##     jumps to Ltmp118
	.byte	0                       ##   On action: cleanup
	.uleb128 Ltmp117-Lfunc_begin6   ## >> Call Site 5 <<
	.uleb128 Lfunc_end6-Ltmp117     ##   Call between Ltmp117 and Lfunc_end6
	.byte	0                       ##     has no landing pad
	.byte	0                       ##   On action: cleanup
Lcst_end6:
	.p2align	2
                                        ## -- End function
	.section	__TEXT,__text,regular,pure_instructions
	.globl	__ZNSt3__14__fs10filesystem4pathC1IA11_cvEERKT_NS2_6formatE ## -- Begin function _ZNSt3__14__fs10filesystem4pathC1IA11_cvEERKT_NS2_6formatE
	.weak_def_can_be_hidden	__ZNSt3__14__fs10filesystem4pathC1IA11_cvEERKT_NS2_6formatE
	.p2align	4, 0x90
__ZNSt3__14__fs10filesystem4pathC1IA11_cvEERKT_NS2_6formatE: ## @_ZNSt3__14__fs10filesystem4pathC1IA11_cvEERKT_NS2_6formatE
	.cfi_startproc
## %bb.0:
	pushq	%rbp
	.cfi_def_cfa_offset 16
	.cfi_offset %rbp, -16
	movq	%rsp, %rbp
	.cfi_def_cfa_register %rbp
	subq	$32, %rsp
                                        ## kill: def $dl killed $dl killed $edx
	movq	%rdi, -8(%rbp)
	movq	%rsi, -16(%rbp)
	movb	%dl, -17(%rbp)
	movq	-8(%rbp), %rdi
	movq	-16(%rbp), %rsi
	movzbl	-17(%rbp), %edx
	callq	__ZNSt3__14__fs10filesystem4pathC2IA11_cvEERKT_NS2_6formatE
	addq	$32, %rsp
	popq	%rbp
	retq
	.cfi_endproc
                                        ## -- End function
	.globl	__Z20generate_launch_jsonRKNSt3__14__fs10filesystem4pathERKNS_12basic_stringIcNS_11char_traitsIcEENS_9allocatorIcEEEE ## -- Begin function _Z20generate_launch_jsonRKNSt3__14__fs10filesystem4pathERKNS_12basic_stringIcNS_11char_traitsIcEENS_9allocatorIcEEEE
	.p2align	4, 0x90
__Z20generate_launch_jsonRKNSt3__14__fs10filesystem4pathERKNS_12basic_stringIcNS_11char_traitsIcEENS_9allocatorIcEEEE: ## @_Z20generate_launch_jsonRKNSt3__14__fs10filesystem4pathERKNS_12basic_stringIcNS_11char_traitsIcEENS_9allocatorIcEEEE
Lfunc_begin7:
	.cfi_startproc
	.cfi_personality 155, ___gxx_personality_v0
	.cfi_lsda 16, Lexception7
## %bb.0:
	pushq	%rbp
	.cfi_def_cfa_offset 16
	.cfi_offset %rbp, -16
	movq	%rsp, %rbp
	.cfi_def_cfa_register %rbp
	subq	$688, %rsp              ## imm = 0x2B0
	movq	___stack_chk_guard@GOTPCREL(%rip), %rax
	movq	(%rax), %rax
	movq	%rax, -8(%rbp)
	movq	%rdi, -584(%rbp)
	movq	%rsi, -592(%rbp)
	movq	-584(%rbp), %rsi
	leaq	L_.str.21(%rip), %rax
	leaq	-640(%rbp), %rcx
	xorl	%edx, %edx
	movq	%rcx, %rdi
	movq	%rsi, -664(%rbp)        ## 8-byte Spill
	movq	%rax, %rsi
	movq	%rcx, -672(%rbp)        ## 8-byte Spill
	callq	__ZNSt3__14__fs10filesystem4pathC1IA12_cvEERKT_NS2_6formatE
Ltmp119:
	leaq	-616(%rbp), %rdi
	movq	-664(%rbp), %rsi        ## 8-byte Reload
	movq	-672(%rbp), %rdx        ## 8-byte Reload
	callq	__ZNSt3__14__fs10filesystemdvERKNS1_4pathES4_
Ltmp120:
	jmp	LBB40_1
LBB40_1:
Ltmp122:
	leaq	-576(%rbp), %rdi
	leaq	-616(%rbp), %rsi
	movl	$16, %edx
	callq	__ZNSt3__114basic_ofstreamIcNS_11char_traitsIcEEEC1ERKNS_4__fs10filesystem4pathEj
Ltmp123:
	jmp	LBB40_2
LBB40_2:
	leaq	-616(%rbp), %rdi
	callq	__ZNSt3__14__fs10filesystem4pathD1Ev
	leaq	-640(%rbp), %rdi
	callq	__ZNSt3__14__fs10filesystem4pathD1Ev
Ltmp125:
	leaq	L_.str.22(%rip), %rsi
	leaq	-576(%rbp), %rdi
	callq	__ZNSt3__1lsINS_11char_traitsIcEEEERNS_13basic_ostreamIcT_EES6_PKc
Ltmp126:
	movq	%rax, -680(%rbp)        ## 8-byte Spill
	jmp	LBB40_3
LBB40_3:
	movq	-592(%rbp), %rsi
Ltmp127:
	movq	-680(%rbp), %rdi        ## 8-byte Reload
	callq	__ZNSt3__1lsIcNS_11char_traitsIcEENS_9allocatorIcEEEERNS_13basic_ostreamIT_T0_EES9_RKNS_12basic_stringIS6_S7_T1_EE
Ltmp128:
	movq	%rax, -688(%rbp)        ## 8-byte Spill
	jmp	LBB40_4
LBB40_4:
Ltmp129:
	leaq	L_.str.23(%rip), %rsi
	movq	-688(%rbp), %rdi        ## 8-byte Reload
	callq	__ZNSt3__1lsINS_11char_traitsIcEEEERNS_13basic_ostreamIcT_EES6_PKc
Ltmp130:
	jmp	LBB40_5
LBB40_5:
	leaq	-576(%rbp), %rdi
	callq	__ZNSt3__114basic_ofstreamIcNS_11char_traitsIcEEED1Ev
	movq	___stack_chk_guard@GOTPCREL(%rip), %rax
	movq	(%rax), %rax
	movq	-8(%rbp), %rcx
	cmpq	%rcx, %rax
	jne	LBB40_12
## %bb.6:
	addq	$688, %rsp              ## imm = 0x2B0
	popq	%rbp
	retq
LBB40_7:
Ltmp121:
                                        ## kill: def $edx killed $edx killed $rdx
	movq	%rax, -648(%rbp)
	movl	%edx, -652(%rbp)
	jmp	LBB40_9
LBB40_8:
Ltmp124:
                                        ## kill: def $edx killed $edx killed $rdx
	movq	%rax, -648(%rbp)
	movl	%edx, -652(%rbp)
	leaq	-616(%rbp), %rdi
	callq	__ZNSt3__14__fs10filesystem4pathD1Ev
LBB40_9:
	leaq	-640(%rbp), %rdi
	callq	__ZNSt3__14__fs10filesystem4pathD1Ev
	jmp	LBB40_11
LBB40_10:
Ltmp131:
                                        ## kill: def $edx killed $edx killed $rdx
	movq	%rax, -648(%rbp)
	movl	%edx, -652(%rbp)
	leaq	-576(%rbp), %rdi
	callq	__ZNSt3__114basic_ofstreamIcNS_11char_traitsIcEEED1Ev
LBB40_11:
	movq	-648(%rbp), %rdi
	callq	__Unwind_Resume
	ud2
LBB40_12:
	callq	___stack_chk_fail
	ud2
Lfunc_end7:
	.cfi_endproc
	.section	__TEXT,__gcc_except_tab
	.p2align	2
GCC_except_table40:
Lexception7:
	.byte	255                     ## @LPStart Encoding = omit
	.byte	255                     ## @TType Encoding = omit
	.byte	1                       ## Call site Encoding = uleb128
	.uleb128 Lcst_end7-Lcst_begin7
Lcst_begin7:
	.uleb128 Lfunc_begin7-Lfunc_begin7 ## >> Call Site 1 <<
	.uleb128 Ltmp119-Lfunc_begin7   ##   Call between Lfunc_begin7 and Ltmp119
	.byte	0                       ##     has no landing pad
	.byte	0                       ##   On action: cleanup
	.uleb128 Ltmp119-Lfunc_begin7   ## >> Call Site 2 <<
	.uleb128 Ltmp120-Ltmp119        ##   Call between Ltmp119 and Ltmp120
	.uleb128 Ltmp121-Lfunc_begin7   ##     jumps to Ltmp121
	.byte	0                       ##   On action: cleanup
	.uleb128 Ltmp122-Lfunc_begin7   ## >> Call Site 3 <<
	.uleb128 Ltmp123-Ltmp122        ##   Call between Ltmp122 and Ltmp123
	.uleb128 Ltmp124-Lfunc_begin7   ##     jumps to Ltmp124
	.byte	0                       ##   On action: cleanup
	.uleb128 Ltmp125-Lfunc_begin7   ## >> Call Site 4 <<
	.uleb128 Ltmp130-Ltmp125        ##   Call between Ltmp125 and Ltmp130
	.uleb128 Ltmp131-Lfunc_begin7   ##     jumps to Ltmp131
	.byte	0                       ##   On action: cleanup
	.uleb128 Ltmp130-Lfunc_begin7   ## >> Call Site 5 <<
	.uleb128 Lfunc_end7-Ltmp130     ##   Call between Ltmp130 and Lfunc_end7
	.byte	0                       ##     has no landing pad
	.byte	0                       ##   On action: cleanup
Lcst_end7:
	.p2align	2
                                        ## -- End function
	.section	__TEXT,__text,regular,pure_instructions
	.globl	__ZNSt3__14__fs10filesystem4pathC1IA12_cvEERKT_NS2_6formatE ## -- Begin function _ZNSt3__14__fs10filesystem4pathC1IA12_cvEERKT_NS2_6formatE
	.weak_def_can_be_hidden	__ZNSt3__14__fs10filesystem4pathC1IA12_cvEERKT_NS2_6formatE
	.p2align	4, 0x90
__ZNSt3__14__fs10filesystem4pathC1IA12_cvEERKT_NS2_6formatE: ## @_ZNSt3__14__fs10filesystem4pathC1IA12_cvEERKT_NS2_6formatE
	.cfi_startproc
## %bb.0:
	pushq	%rbp
	.cfi_def_cfa_offset 16
	.cfi_offset %rbp, -16
	movq	%rsp, %rbp
	.cfi_def_cfa_register %rbp
	subq	$32, %rsp
                                        ## kill: def $dl killed $dl killed $edx
	movq	%rdi, -8(%rbp)
	movq	%rsi, -16(%rbp)
	movb	%dl, -17(%rbp)
	movq	-8(%rbp), %rdi
	movq	-16(%rbp), %rsi
	movzbl	-17(%rbp), %edx
	callq	__ZNSt3__14__fs10filesystem4pathC2IA12_cvEERKT_NS2_6formatE
	addq	$32, %rsp
	popq	%rbp
	retq
	.cfi_endproc
                                        ## -- End function
	.globl	__Z22generate_settings_jsonRKNSt3__14__fs10filesystem4pathE ## -- Begin function _Z22generate_settings_jsonRKNSt3__14__fs10filesystem4pathE
	.p2align	4, 0x90
__Z22generate_settings_jsonRKNSt3__14__fs10filesystem4pathE: ## @_Z22generate_settings_jsonRKNSt3__14__fs10filesystem4pathE
Lfunc_begin8:
	.cfi_startproc
	.cfi_personality 155, ___gxx_personality_v0
	.cfi_lsda 16, Lexception8
## %bb.0:
	pushq	%rbp
	.cfi_def_cfa_offset 16
	.cfi_offset %rbp, -16
	movq	%rsp, %rbp
	.cfi_def_cfa_register %rbp
	subq	$672, %rsp              ## imm = 0x2A0
	movq	___stack_chk_guard@GOTPCREL(%rip), %rax
	movq	(%rax), %rax
	movq	%rax, -8(%rbp)
	movq	%rdi, -584(%rbp)
	movq	-584(%rbp), %rsi
	leaq	L_.str.24(%rip), %rax
	leaq	-632(%rbp), %rcx
	xorl	%edx, %edx
	movq	%rcx, %rdi
	movq	%rsi, -656(%rbp)        ## 8-byte Spill
	movq	%rax, %rsi
	movq	%rcx, -664(%rbp)        ## 8-byte Spill
	callq	__ZNSt3__14__fs10filesystem4pathC1IA14_cvEERKT_NS2_6formatE
Ltmp132:
	leaq	-608(%rbp), %rdi
	movq	-656(%rbp), %rsi        ## 8-byte Reload
	movq	-664(%rbp), %rdx        ## 8-byte Reload
	callq	__ZNSt3__14__fs10filesystemdvERKNS1_4pathES4_
Ltmp133:
	jmp	LBB42_1
LBB42_1:
Ltmp135:
	leaq	-576(%rbp), %rdi
	leaq	-608(%rbp), %rsi
	movl	$16, %edx
	callq	__ZNSt3__114basic_ofstreamIcNS_11char_traitsIcEEEC1ERKNS_4__fs10filesystem4pathEj
Ltmp136:
	jmp	LBB42_2
LBB42_2:
	leaq	-608(%rbp), %rdi
	callq	__ZNSt3__14__fs10filesystem4pathD1Ev
	leaq	-632(%rbp), %rdi
	callq	__ZNSt3__14__fs10filesystem4pathD1Ev
Ltmp138:
	leaq	L_.str.25(%rip), %rsi
	leaq	-576(%rbp), %rdi
	callq	__ZNSt3__1lsINS_11char_traitsIcEEEERNS_13basic_ostreamIcT_EES6_PKc
Ltmp139:
	jmp	LBB42_3
LBB42_3:
	leaq	-576(%rbp), %rdi
	callq	__ZNSt3__114basic_ofstreamIcNS_11char_traitsIcEEED1Ev
	movq	___stack_chk_guard@GOTPCREL(%rip), %rax
	movq	(%rax), %rax
	movq	-8(%rbp), %rcx
	cmpq	%rcx, %rax
	jne	LBB42_10
## %bb.4:
	addq	$672, %rsp              ## imm = 0x2A0
	popq	%rbp
	retq
LBB42_5:
Ltmp134:
                                        ## kill: def $edx killed $edx killed $rdx
	movq	%rax, -640(%rbp)
	movl	%edx, -644(%rbp)
	jmp	LBB42_7
LBB42_6:
Ltmp137:
                                        ## kill: def $edx killed $edx killed $rdx
	movq	%rax, -640(%rbp)
	movl	%edx, -644(%rbp)
	leaq	-608(%rbp), %rdi
	callq	__ZNSt3__14__fs10filesystem4pathD1Ev
LBB42_7:
	leaq	-632(%rbp), %rdi
	callq	__ZNSt3__14__fs10filesystem4pathD1Ev
	jmp	LBB42_9
LBB42_8:
Ltmp140:
                                        ## kill: def $edx killed $edx killed $rdx
	movq	%rax, -640(%rbp)
	movl	%edx, -644(%rbp)
	leaq	-576(%rbp), %rdi
	callq	__ZNSt3__114basic_ofstreamIcNS_11char_traitsIcEEED1Ev
LBB42_9:
	movq	-640(%rbp), %rdi
	callq	__Unwind_Resume
	ud2
LBB42_10:
	callq	___stack_chk_fail
	ud2
Lfunc_end8:
	.cfi_endproc
	.section	__TEXT,__gcc_except_tab
	.p2align	2
GCC_except_table42:
Lexception8:
	.byte	255                     ## @LPStart Encoding = omit
	.byte	255                     ## @TType Encoding = omit
	.byte	1                       ## Call site Encoding = uleb128
	.uleb128 Lcst_end8-Lcst_begin8
Lcst_begin8:
	.uleb128 Lfunc_begin8-Lfunc_begin8 ## >> Call Site 1 <<
	.uleb128 Ltmp132-Lfunc_begin8   ##   Call between Lfunc_begin8 and Ltmp132
	.byte	0                       ##     has no landing pad
	.byte	0                       ##   On action: cleanup
	.uleb128 Ltmp132-Lfunc_begin8   ## >> Call Site 2 <<
	.uleb128 Ltmp133-Ltmp132        ##   Call between Ltmp132 and Ltmp133
	.uleb128 Ltmp134-Lfunc_begin8   ##     jumps to Ltmp134
	.byte	0                       ##   On action: cleanup
	.uleb128 Ltmp135-Lfunc_begin8   ## >> Call Site 3 <<
	.uleb128 Ltmp136-Ltmp135        ##   Call between Ltmp135 and Ltmp136
	.uleb128 Ltmp137-Lfunc_begin8   ##     jumps to Ltmp137
	.byte	0                       ##   On action: cleanup
	.uleb128 Ltmp138-Lfunc_begin8   ## >> Call Site 4 <<
	.uleb128 Ltmp139-Ltmp138        ##   Call between Ltmp138 and Ltmp139
	.uleb128 Ltmp140-Lfunc_begin8   ##     jumps to Ltmp140
	.byte	0                       ##   On action: cleanup
	.uleb128 Ltmp139-Lfunc_begin8   ## >> Call Site 5 <<
	.uleb128 Lfunc_end8-Ltmp139     ##   Call between Ltmp139 and Lfunc_end8
	.byte	0                       ##     has no landing pad
	.byte	0                       ##   On action: cleanup
Lcst_end8:
	.p2align	2
                                        ## -- End function
	.section	__TEXT,__text,regular,pure_instructions
	.globl	__ZNSt3__14__fs10filesystem4pathC1IA14_cvEERKT_NS2_6formatE ## -- Begin function _ZNSt3__14__fs10filesystem4pathC1IA14_cvEERKT_NS2_6formatE
	.weak_def_can_be_hidden	__ZNSt3__14__fs10filesystem4pathC1IA14_cvEERKT_NS2_6formatE
	.p2align	4, 0x90
__ZNSt3__14__fs10filesystem4pathC1IA14_cvEERKT_NS2_6formatE: ## @_ZNSt3__14__fs10filesystem4pathC1IA14_cvEERKT_NS2_6formatE
	.cfi_startproc
## %bb.0:
	pushq	%rbp
	.cfi_def_cfa_offset 16
	.cfi_offset %rbp, -16
	movq	%rsp, %rbp
	.cfi_def_cfa_register %rbp
	subq	$32, %rsp
                                        ## kill: def $dl killed $dl killed $edx
	movq	%rdi, -8(%rbp)
	movq	%rsi, -16(%rbp)
	movb	%dl, -17(%rbp)
	movq	-8(%rbp), %rdi
	movq	-16(%rbp), %rsi
	movzbl	-17(%rbp), %edx
	callq	__ZNSt3__14__fs10filesystem4pathC2IA14_cvEERKT_NS2_6formatE
	addq	$32, %rsp
	popq	%rbp
	retq
	.cfi_endproc
                                        ## -- End function
	.section	__TEXT,__StaticInit,regular,pure_instructions
	.p2align	4, 0x90         ## -- Begin function __cxx_global_var_init
___cxx_global_var_init:                 ## @__cxx_global_var_init
Lfunc_begin9:
	.cfi_startproc
	.cfi_personality 155, ___gxx_personality_v0
	.cfi_lsda 16, Lexception9
## %bb.0:
	pushq	%rbp
	.cfi_def_cfa_offset 16
	.cfi_offset %rbp, -16
	movq	%rsp, %rbp
	.cfi_def_cfa_register %rbp
	subq	$1440, %rsp             ## imm = 0x5A0
	movq	___stack_chk_guard@GOTPCREL(%rip), %rax
	movq	(%rax), %rax
	movq	%rax, -8(%rbp)
	leaq	-584(%rbp), %rax
	movb	$1, -1201(%rbp)
	movq	%rax, -608(%rbp)
Ltmp141:
	leaq	L_.str.26(%rip), %rsi
	leaq	-632(%rbp), %rdi
	movq	%rax, -1216(%rbp)       ## 8-byte Spill
	callq	__ZNSt3__112basic_stringIcNS_11char_traitsIcEENS_9allocatorIcEEEC1IDnEEPKc
Ltmp142:
	jmp	LBB44_1
LBB44_1:
	leaq	-816(%rbp), %rax
Ltmp144:
	leaq	L_.str.27(%rip), %rsi
	movq	%rax, %rdi
	movq	%rax, -1224(%rbp)       ## 8-byte Spill
	callq	__ZNSt3__112basic_stringIcNS_11char_traitsIcEENS_9allocatorIcEEEC1IDnEEPKc
Ltmp145:
	jmp	LBB44_2
LBB44_2:
	leaq	-792(%rbp), %rax
Ltmp147:
	leaq	L_.str.28(%rip), %rsi
	movq	%rax, %rdi
	movq	%rax, -1232(%rbp)       ## 8-byte Spill
	callq	__ZNSt3__112basic_stringIcNS_11char_traitsIcEENS_9allocatorIcEEEC1IDnEEPKc
Ltmp148:
	jmp	LBB44_3
LBB44_3:
	leaq	-768(%rbp), %rax
Ltmp150:
	leaq	L_.str.29(%rip), %rsi
	movq	%rax, %rdi
	movq	%rax, -1240(%rbp)       ## 8-byte Spill
	callq	__ZNSt3__112basic_stringIcNS_11char_traitsIcEENS_9allocatorIcEEEC1IDnEEPKc
Ltmp151:
	jmp	LBB44_4
LBB44_4:
	leaq	-744(%rbp), %rax
Ltmp153:
	leaq	L_.str.30(%rip), %rsi
	movq	%rax, %rdi
	movq	%rax, -1248(%rbp)       ## 8-byte Spill
	callq	__ZNSt3__112basic_stringIcNS_11char_traitsIcEENS_9allocatorIcEEEC1IDnEEPKc
Ltmp154:
	jmp	LBB44_5
LBB44_5:
	leaq	-720(%rbp), %rax
	movq	%rax, %rdi
	movq	%rax, -1256(%rbp)       ## 8-byte Spill
	callq	__ZNSt3__16vectorINS_12basic_stringIcNS_11char_traitsIcEENS_9allocatorIcEEEENS4_IS6_EEEC1Ev
	leaq	-696(%rbp), %rax
Ltmp156:
	leaq	L_.str.31(%rip), %rsi
	movq	%rax, %rdi
	movq	%rax, -1264(%rbp)       ## 8-byte Spill
	callq	__ZNSt3__112basic_stringIcNS_11char_traitsIcEENS_9allocatorIcEEEC1IDnEEPKc
Ltmp157:
	jmp	LBB44_6
LBB44_6:
	leaq	-672(%rbp), %rdi
Ltmp159:
	leaq	L_.str.32(%rip), %rsi
	callq	__ZNSt3__112basic_stringIcNS_11char_traitsIcEENS_9allocatorIcEEEC1IDnEEPKc
Ltmp160:
	jmp	LBB44_7
LBB44_7:
Ltmp162:
	leaq	-632(%rbp), %rsi
	leaq	-816(%rbp), %rdx
	movq	-1216(%rbp), %rdi       ## 8-byte Reload
	callq	__ZNSt3__14pairIKNS_12basic_stringIcNS_11char_traitsIcEENS_9allocatorIcEEEE17ThirdPartyLibraryEC1ILb1ELb0EEERS7_RKS8_
Ltmp163:
	jmp	LBB44_8
LBB44_8:
	movq	-1216(%rbp), %rax       ## 8-byte Reload
	addq	$192, %rax
	movq	%rax, -608(%rbp)
Ltmp164:
	leaq	L_.str.33(%rip), %rsi
	leaq	-840(%rbp), %rdi
	movq	%rax, -1272(%rbp)       ## 8-byte Spill
	callq	__ZNSt3__112basic_stringIcNS_11char_traitsIcEENS_9allocatorIcEEEC1IDnEEPKc
Ltmp165:
	jmp	LBB44_9
LBB44_9:
	leaq	-1008(%rbp), %rax
Ltmp167:
	leaq	L_.str.34(%rip), %rsi
	movq	%rax, %rdi
	movq	%rax, -1280(%rbp)       ## 8-byte Spill
	callq	__ZNSt3__112basic_stringIcNS_11char_traitsIcEENS_9allocatorIcEEEC1IDnEEPKc
Ltmp168:
	jmp	LBB44_10
LBB44_10:
	leaq	-984(%rbp), %rax
Ltmp170:
	leaq	L_.str.35(%rip), %rsi
	movq	%rax, %rdi
	movq	%rax, -1288(%rbp)       ## 8-byte Spill
	callq	__ZNSt3__112basic_stringIcNS_11char_traitsIcEENS_9allocatorIcEEEC1IDnEEPKc
Ltmp171:
	jmp	LBB44_11
LBB44_11:
	leaq	-960(%rbp), %rax
Ltmp173:
	leaq	L_.str.36(%rip), %rsi
	movq	%rax, %rdi
	movq	%rax, -1296(%rbp)       ## 8-byte Spill
	callq	__ZNSt3__112basic_stringIcNS_11char_traitsIcEENS_9allocatorIcEEEC1IDnEEPKc
Ltmp174:
	jmp	LBB44_12
LBB44_12:
	leaq	-936(%rbp), %rax
Ltmp176:
	leaq	L_.str.37(%rip), %rsi
	movq	%rax, %rdi
	movq	%rax, -1304(%rbp)       ## 8-byte Spill
	callq	__ZNSt3__112basic_stringIcNS_11char_traitsIcEENS_9allocatorIcEEEC1IDnEEPKc
Ltmp177:
	jmp	LBB44_13
LBB44_13:
	leaq	-912(%rbp), %rax
	movq	%rax, %rdi
	movq	%rax, -1312(%rbp)       ## 8-byte Spill
	callq	__ZNSt3__16vectorINS_12basic_stringIcNS_11char_traitsIcEENS_9allocatorIcEEEENS4_IS6_EEEC1Ev
	leaq	-888(%rbp), %rax
Ltmp179:
	leaq	L_.str.38(%rip), %rsi
	movq	%rax, %rdi
	movq	%rax, -1320(%rbp)       ## 8-byte Spill
	callq	__ZNSt3__112basic_stringIcNS_11char_traitsIcEENS_9allocatorIcEEEC1IDnEEPKc
Ltmp180:
	jmp	LBB44_14
LBB44_14:
	leaq	-864(%rbp), %rdi
Ltmp182:
	leaq	L_.str.39(%rip), %rsi
	callq	__ZNSt3__112basic_stringIcNS_11char_traitsIcEENS_9allocatorIcEEEC1IDnEEPKc
Ltmp183:
	jmp	LBB44_15
LBB44_15:
Ltmp185:
	leaq	-840(%rbp), %rsi
	leaq	-1008(%rbp), %rdx
	movq	-1272(%rbp), %rdi       ## 8-byte Reload
	callq	__ZNSt3__14pairIKNS_12basic_stringIcNS_11char_traitsIcEENS_9allocatorIcEEEE17ThirdPartyLibraryEC1ILb1ELb0EEERS7_RKS8_
Ltmp186:
	jmp	LBB44_16
LBB44_16:
	movq	-1272(%rbp), %rax       ## 8-byte Reload
	addq	$192, %rax
	movq	%rax, -608(%rbp)
Ltmp187:
	leaq	L_.str.40(%rip), %rsi
	leaq	-1032(%rbp), %rdi
	movq	%rax, -1328(%rbp)       ## 8-byte Spill
	callq	__ZNSt3__112basic_stringIcNS_11char_traitsIcEENS_9allocatorIcEEEC1IDnEEPKc
Ltmp188:
	jmp	LBB44_17
LBB44_17:
	leaq	-1200(%rbp), %rax
Ltmp190:
	leaq	L_.str.41(%rip), %rsi
	movq	%rax, %rdi
	movq	%rax, -1336(%rbp)       ## 8-byte Spill
	callq	__ZNSt3__112basic_stringIcNS_11char_traitsIcEENS_9allocatorIcEEEC1IDnEEPKc
Ltmp191:
	jmp	LBB44_18
LBB44_18:
	leaq	-1176(%rbp), %rax
Ltmp193:
	leaq	L_.str.42(%rip), %rsi
	movq	%rax, %rdi
	movq	%rax, -1344(%rbp)       ## 8-byte Spill
	callq	__ZNSt3__112basic_stringIcNS_11char_traitsIcEENS_9allocatorIcEEEC1IDnEEPKc
Ltmp194:
	jmp	LBB44_19
LBB44_19:
	leaq	-1152(%rbp), %rax
Ltmp196:
	leaq	L_.str.43(%rip), %rsi
	movq	%rax, %rdi
	movq	%rax, -1352(%rbp)       ## 8-byte Spill
	callq	__ZNSt3__112basic_stringIcNS_11char_traitsIcEENS_9allocatorIcEEEC1IDnEEPKc
Ltmp197:
	jmp	LBB44_20
LBB44_20:
	leaq	-1128(%rbp), %rax
Ltmp199:
	leaq	L_.str.44(%rip), %rsi
	movq	%rax, %rdi
	movq	%rax, -1360(%rbp)       ## 8-byte Spill
	callq	__ZNSt3__112basic_stringIcNS_11char_traitsIcEENS_9allocatorIcEEEC1IDnEEPKc
Ltmp200:
	jmp	LBB44_21
LBB44_21:
	leaq	-1104(%rbp), %rax
	movq	%rax, %rdi
	movq	%rax, -1368(%rbp)       ## 8-byte Spill
	callq	__ZNSt3__16vectorINS_12basic_stringIcNS_11char_traitsIcEENS_9allocatorIcEEEENS4_IS6_EEEC1Ev
	leaq	-1080(%rbp), %rax
Ltmp202:
	leaq	L_.str.45(%rip), %rsi
	movq	%rax, %rdi
	movq	%rax, -1376(%rbp)       ## 8-byte Spill
	callq	__ZNSt3__112basic_stringIcNS_11char_traitsIcEENS_9allocatorIcEEEC1IDnEEPKc
Ltmp203:
	jmp	LBB44_22
LBB44_22:
	leaq	-1056(%rbp), %rdi
Ltmp205:
	leaq	L_.str.46(%rip), %rsi
	callq	__ZNSt3__112basic_stringIcNS_11char_traitsIcEENS_9allocatorIcEEEC1IDnEEPKc
Ltmp206:
	jmp	LBB44_23
LBB44_23:
Ltmp208:
	leaq	-1032(%rbp), %rsi
	leaq	-1200(%rbp), %rdx
	movq	-1328(%rbp), %rdi       ## 8-byte Reload
	callq	__ZNSt3__14pairIKNS_12basic_stringIcNS_11char_traitsIcEENS_9allocatorIcEEEE17ThirdPartyLibraryEC1ILb1ELb0EEERS7_RKS8_
Ltmp209:
	jmp	LBB44_24
LBB44_24:
	movb	$0, -1201(%rbp)
	leaq	-584(%rbp), %rax
	movq	%rax, -600(%rbp)
	movq	$3, -592(%rbp)
	movq	-600(%rbp), %rsi
	movq	-592(%rbp), %rdx
Ltmp211:
	leaq	_SUPPORTED_LIBRARIES(%rip), %rdi
	callq	__ZNSt3__113unordered_mapINS_12basic_stringIcNS_11char_traitsIcEENS_9allocatorIcEEEE17ThirdPartyLibraryNS_4hashIS6_EENS_8equal_toIS6_EENS4_INS_4pairIKS6_S7_EEEEEC1ESt16initializer_listISE_E
Ltmp212:
	jmp	LBB44_25
LBB44_25:
	leaq	-584(%rbp), %rax
	movq	%rax, %rcx
	addq	$576, %rcx              ## imm = 0x240
	movq	%rax, -1384(%rbp)       ## 8-byte Spill
	movq	%rcx, -1392(%rbp)       ## 8-byte Spill
LBB44_26:                               ## =>This Inner Loop Header: Depth=1
	movq	-1392(%rbp), %rax       ## 8-byte Reload
	addq	$-192, %rax
	movq	%rax, %rdi
	movq	%rax, -1400(%rbp)       ## 8-byte Spill
	callq	__ZNSt3__14pairIKNS_12basic_stringIcNS_11char_traitsIcEENS_9allocatorIcEEEE17ThirdPartyLibraryED1Ev
	movq	-1400(%rbp), %rax       ## 8-byte Reload
	movq	-1384(%rbp), %rcx       ## 8-byte Reload
	cmpq	%rcx, %rax
	movq	%rax, -1392(%rbp)       ## 8-byte Spill
	jne	LBB44_26
## %bb.27:
	leaq	-1200(%rbp), %rdi
	callq	__ZN17ThirdPartyLibraryD1Ev
	leaq	-1032(%rbp), %rdi
	callq	__ZNSt3__112basic_stringIcNS_11char_traitsIcEENS_9allocatorIcEEED1Ev
	leaq	-1008(%rbp), %rdi
	callq	__ZN17ThirdPartyLibraryD1Ev
	leaq	-840(%rbp), %rdi
	callq	__ZNSt3__112basic_stringIcNS_11char_traitsIcEENS_9allocatorIcEEED1Ev
	leaq	-816(%rbp), %rdi
	callq	__ZN17ThirdPartyLibraryD1Ev
	leaq	-632(%rbp), %rdi
	callq	__ZNSt3__112basic_stringIcNS_11char_traitsIcEENS_9allocatorIcEEED1Ev
	leaq	__ZNSt3__113unordered_mapINS_12basic_stringIcNS_11char_traitsIcEENS_9allocatorIcEEEE17ThirdPartyLibraryNS_4hashIS6_EENS_8equal_toIS6_EENS4_INS_4pairIKS6_S7_EEEEED1Ev(%rip), %rax
	leaq	_SUPPORTED_LIBRARIES(%rip), %rcx
	movq	%rax, %rdi
	movq	%rcx, %rsi
	leaq	___dso_handle(%rip), %rdx
	callq	___cxa_atexit
	movq	___stack_chk_guard@GOTPCREL(%rip), %rcx
	movq	(%rcx), %rcx
	movq	-8(%rbp), %rdx
	cmpq	%rdx, %rcx
	jne	LBB44_78
## %bb.28:
	addq	$1440, %rsp             ## imm = 0x5A0
	popq	%rbp
	retq
LBB44_29:
Ltmp143:
                                        ## kill: def $edx killed $edx killed $rdx
	movq	%rax, -640(%rbp)
	movl	%edx, -644(%rbp)
	jmp	LBB44_72
LBB44_30:
Ltmp146:
                                        ## kill: def $edx killed $edx killed $rdx
	movq	%rax, -640(%rbp)
	movl	%edx, -644(%rbp)
	jmp	LBB44_71
LBB44_31:
Ltmp149:
                                        ## kill: def $edx killed $edx killed $rdx
	movq	%rax, -640(%rbp)
	movl	%edx, -644(%rbp)
	jmp	LBB44_39
LBB44_32:
Ltmp152:
                                        ## kill: def $edx killed $edx killed $rdx
	movq	%rax, -640(%rbp)
	movl	%edx, -644(%rbp)
	jmp	LBB44_38
LBB44_33:
Ltmp155:
                                        ## kill: def $edx killed $edx killed $rdx
	movq	%rax, -640(%rbp)
	movl	%edx, -644(%rbp)
	jmp	LBB44_37
LBB44_34:
Ltmp158:
                                        ## kill: def $edx killed $edx killed $rdx
	movq	%rax, -640(%rbp)
	movl	%edx, -644(%rbp)
	jmp	LBB44_36
LBB44_35:
Ltmp161:
                                        ## kill: def $edx killed $edx killed $rdx
	movq	%rax, -640(%rbp)
	movl	%edx, -644(%rbp)
	movq	-1264(%rbp), %rdi       ## 8-byte Reload
	callq	__ZNSt3__112basic_stringIcNS_11char_traitsIcEENS_9allocatorIcEEED1Ev
LBB44_36:
	movq	-1256(%rbp), %rdi       ## 8-byte Reload
	callq	__ZNSt3__16vectorINS_12basic_stringIcNS_11char_traitsIcEENS_9allocatorIcEEEENS4_IS6_EEED1Ev
	movq	-1248(%rbp), %rdi       ## 8-byte Reload
	callq	__ZNSt3__112basic_stringIcNS_11char_traitsIcEENS_9allocatorIcEEED1Ev
LBB44_37:
	movq	-1240(%rbp), %rdi       ## 8-byte Reload
	callq	__ZNSt3__112basic_stringIcNS_11char_traitsIcEENS_9allocatorIcEEED1Ev
LBB44_38:
	movq	-1232(%rbp), %rdi       ## 8-byte Reload
	callq	__ZNSt3__112basic_stringIcNS_11char_traitsIcEENS_9allocatorIcEEED1Ev
LBB44_39:
	movq	-1224(%rbp), %rdi       ## 8-byte Reload
	callq	__ZNSt3__112basic_stringIcNS_11char_traitsIcEENS_9allocatorIcEEED1Ev
	jmp	LBB44_71
LBB44_40:
Ltmp166:
                                        ## kill: def $edx killed $edx killed $rdx
	movq	%rax, -640(%rbp)
	movl	%edx, -644(%rbp)
	jmp	LBB44_70
LBB44_41:
Ltmp169:
                                        ## kill: def $edx killed $edx killed $rdx
	movq	%rax, -640(%rbp)
	movl	%edx, -644(%rbp)
	jmp	LBB44_69
LBB44_42:
Ltmp172:
                                        ## kill: def $edx killed $edx killed $rdx
	movq	%rax, -640(%rbp)
	movl	%edx, -644(%rbp)
	jmp	LBB44_50
LBB44_43:
Ltmp175:
                                        ## kill: def $edx killed $edx killed $rdx
	movq	%rax, -640(%rbp)
	movl	%edx, -644(%rbp)
	jmp	LBB44_49
LBB44_44:
Ltmp178:
                                        ## kill: def $edx killed $edx killed $rdx
	movq	%rax, -640(%rbp)
	movl	%edx, -644(%rbp)
	jmp	LBB44_48
LBB44_45:
Ltmp181:
                                        ## kill: def $edx killed $edx killed $rdx
	movq	%rax, -640(%rbp)
	movl	%edx, -644(%rbp)
	jmp	LBB44_47
LBB44_46:
Ltmp184:
                                        ## kill: def $edx killed $edx killed $rdx
	movq	%rax, -640(%rbp)
	movl	%edx, -644(%rbp)
	movq	-1320(%rbp), %rdi       ## 8-byte Reload
	callq	__ZNSt3__112basic_stringIcNS_11char_traitsIcEENS_9allocatorIcEEED1Ev
LBB44_47:
	movq	-1312(%rbp), %rdi       ## 8-byte Reload
	callq	__ZNSt3__16vectorINS_12basic_stringIcNS_11char_traitsIcEENS_9allocatorIcEEEENS4_IS6_EEED1Ev
	movq	-1304(%rbp), %rdi       ## 8-byte Reload
	callq	__ZNSt3__112basic_stringIcNS_11char_traitsIcEENS_9allocatorIcEEED1Ev
LBB44_48:
	movq	-1296(%rbp), %rdi       ## 8-byte Reload
	callq	__ZNSt3__112basic_stringIcNS_11char_traitsIcEENS_9allocatorIcEEED1Ev
LBB44_49:
	movq	-1288(%rbp), %rdi       ## 8-byte Reload
	callq	__ZNSt3__112basic_stringIcNS_11char_traitsIcEENS_9allocatorIcEEED1Ev
LBB44_50:
	movq	-1280(%rbp), %rdi       ## 8-byte Reload
	callq	__ZNSt3__112basic_stringIcNS_11char_traitsIcEENS_9allocatorIcEEED1Ev
	jmp	LBB44_69
LBB44_51:
Ltmp189:
                                        ## kill: def $edx killed $edx killed $rdx
	movq	%rax, -640(%rbp)
	movl	%edx, -644(%rbp)
	jmp	LBB44_68
LBB44_52:
Ltmp192:
                                        ## kill: def $edx killed $edx killed $rdx
	movq	%rax, -640(%rbp)
	movl	%edx, -644(%rbp)
	jmp	LBB44_67
LBB44_53:
Ltmp195:
                                        ## kill: def $edx killed $edx killed $rdx
	movq	%rax, -640(%rbp)
	movl	%edx, -644(%rbp)
	jmp	LBB44_61
LBB44_54:
Ltmp198:
                                        ## kill: def $edx killed $edx killed $rdx
	movq	%rax, -640(%rbp)
	movl	%edx, -644(%rbp)
	jmp	LBB44_60
LBB44_55:
Ltmp201:
                                        ## kill: def $edx killed $edx killed $rdx
	movq	%rax, -640(%rbp)
	movl	%edx, -644(%rbp)
	jmp	LBB44_59
LBB44_56:
Ltmp204:
                                        ## kill: def $edx killed $edx killed $rdx
	movq	%rax, -640(%rbp)
	movl	%edx, -644(%rbp)
	jmp	LBB44_58
LBB44_57:
Ltmp207:
                                        ## kill: def $edx killed $edx killed $rdx
	movq	%rax, -640(%rbp)
	movl	%edx, -644(%rbp)
	movq	-1376(%rbp), %rdi       ## 8-byte Reload
	callq	__ZNSt3__112basic_stringIcNS_11char_traitsIcEENS_9allocatorIcEEED1Ev
LBB44_58:
	movq	-1368(%rbp), %rdi       ## 8-byte Reload
	callq	__ZNSt3__16vectorINS_12basic_stringIcNS_11char_traitsIcEENS_9allocatorIcEEEENS4_IS6_EEED1Ev
	movq	-1360(%rbp), %rdi       ## 8-byte Reload
	callq	__ZNSt3__112basic_stringIcNS_11char_traitsIcEENS_9allocatorIcEEED1Ev
LBB44_59:
	movq	-1352(%rbp), %rdi       ## 8-byte Reload
	callq	__ZNSt3__112basic_stringIcNS_11char_traitsIcEENS_9allocatorIcEEED1Ev
LBB44_60:
	movq	-1344(%rbp), %rdi       ## 8-byte Reload
	callq	__ZNSt3__112basic_stringIcNS_11char_traitsIcEENS_9allocatorIcEEED1Ev
LBB44_61:
	movq	-1336(%rbp), %rdi       ## 8-byte Reload
	callq	__ZNSt3__112basic_stringIcNS_11char_traitsIcEENS_9allocatorIcEEED1Ev
	jmp	LBB44_67
LBB44_62:
Ltmp210:
                                        ## kill: def $edx killed $edx killed $rdx
	movq	%rax, -640(%rbp)
	movl	%edx, -644(%rbp)
	jmp	LBB44_66
LBB44_63:
Ltmp213:
	leaq	-584(%rbp), %rcx
                                        ## kill: def $edx killed $edx killed $rdx
	movq	%rax, -640(%rbp)
	movl	%edx, -644(%rbp)
	movq	%rcx, %rax
	addq	$576, %rax              ## imm = 0x240
	movq	%rcx, -1408(%rbp)       ## 8-byte Spill
	movq	%rax, -1416(%rbp)       ## 8-byte Spill
LBB44_64:                               ## =>This Inner Loop Header: Depth=1
	movq	-1416(%rbp), %rax       ## 8-byte Reload
	addq	$-192, %rax
	movq	%rax, %rdi
	movq	%rax, -1424(%rbp)       ## 8-byte Spill
	callq	__ZNSt3__14pairIKNS_12basic_stringIcNS_11char_traitsIcEENS_9allocatorIcEEEE17ThirdPartyLibraryED1Ev
	movq	-1424(%rbp), %rax       ## 8-byte Reload
	movq	-1408(%rbp), %rcx       ## 8-byte Reload
	cmpq	%rcx, %rax
	movq	%rax, -1416(%rbp)       ## 8-byte Spill
	jne	LBB44_64
## %bb.65:
	jmp	LBB44_66
LBB44_66:
	leaq	-1200(%rbp), %rdi
	callq	__ZN17ThirdPartyLibraryD1Ev
LBB44_67:
	leaq	-1032(%rbp), %rdi
	callq	__ZNSt3__112basic_stringIcNS_11char_traitsIcEENS_9allocatorIcEEED1Ev
LBB44_68:
	leaq	-1008(%rbp), %rdi
	callq	__ZN17ThirdPartyLibraryD1Ev
LBB44_69:
	leaq	-840(%rbp), %rdi
	callq	__ZNSt3__112basic_stringIcNS_11char_traitsIcEENS_9allocatorIcEEED1Ev
LBB44_70:
	leaq	-816(%rbp), %rdi
	callq	__ZN17ThirdPartyLibraryD1Ev
LBB44_71:
	leaq	-632(%rbp), %rdi
	callq	__ZNSt3__112basic_stringIcNS_11char_traitsIcEENS_9allocatorIcEEED1Ev
LBB44_72:
	testb	$1, -1201(%rbp)
	jne	LBB44_73
	jmp	LBB44_76
LBB44_73:
	movq	-608(%rbp), %rax
	movq	-1216(%rbp), %rcx       ## 8-byte Reload
	cmpq	%rax, %rcx
	movq	%rax, -1432(%rbp)       ## 8-byte Spill
	je	LBB44_75
LBB44_74:                               ## =>This Inner Loop Header: Depth=1
	movq	-1432(%rbp), %rax       ## 8-byte Reload
	addq	$-192, %rax
	movq	%rax, %rdi
	movq	%rax, -1440(%rbp)       ## 8-byte Spill
	callq	__ZNSt3__14pairIKNS_12basic_stringIcNS_11char_traitsIcEENS_9allocatorIcEEEE17ThirdPartyLibraryED1Ev
	movq	-1440(%rbp), %rax       ## 8-byte Reload
	movq	-1216(%rbp), %rcx       ## 8-byte Reload
	cmpq	%rcx, %rax
	movq	%rax, -1432(%rbp)       ## 8-byte Spill
	jne	LBB44_74
LBB44_75:
	jmp	LBB44_76
LBB44_76:
	jmp	LBB44_77
LBB44_77:
	movq	-640(%rbp), %rdi
	callq	__Unwind_Resume
	ud2
LBB44_78:
	callq	___stack_chk_fail
	ud2
Lfunc_end9:
	.cfi_endproc
	.section	__TEXT,__gcc_except_tab
	.p2align	2
GCC_except_table44:
Lexception9:
	.byte	255                     ## @LPStart Encoding = omit
	.byte	255                     ## @TType Encoding = omit
	.byte	1                       ## Call site Encoding = uleb128
	.uleb128 Lcst_end9-Lcst_begin9
Lcst_begin9:
	.uleb128 Ltmp141-Lfunc_begin9   ## >> Call Site 1 <<
	.uleb128 Ltmp142-Ltmp141        ##   Call between Ltmp141 and Ltmp142
	.uleb128 Ltmp143-Lfunc_begin9   ##     jumps to Ltmp143
	.byte	0                       ##   On action: cleanup
	.uleb128 Ltmp144-Lfunc_begin9   ## >> Call Site 2 <<
	.uleb128 Ltmp145-Ltmp144        ##   Call between Ltmp144 and Ltmp145
	.uleb128 Ltmp146-Lfunc_begin9   ##     jumps to Ltmp146
	.byte	0                       ##   On action: cleanup
	.uleb128 Ltmp147-Lfunc_begin9   ## >> Call Site 3 <<
	.uleb128 Ltmp148-Ltmp147        ##   Call between Ltmp147 and Ltmp148
	.uleb128 Ltmp149-Lfunc_begin9   ##     jumps to Ltmp149
	.byte	0                       ##   On action: cleanup
	.uleb128 Ltmp150-Lfunc_begin9   ## >> Call Site 4 <<
	.uleb128 Ltmp151-Ltmp150        ##   Call between Ltmp150 and Ltmp151
	.uleb128 Ltmp152-Lfunc_begin9   ##     jumps to Ltmp152
	.byte	0                       ##   On action: cleanup
	.uleb128 Ltmp153-Lfunc_begin9   ## >> Call Site 5 <<
	.uleb128 Ltmp154-Ltmp153        ##   Call between Ltmp153 and Ltmp154
	.uleb128 Ltmp155-Lfunc_begin9   ##     jumps to Ltmp155
	.byte	0                       ##   On action: cleanup
	.uleb128 Ltmp156-Lfunc_begin9   ## >> Call Site 6 <<
	.uleb128 Ltmp157-Ltmp156        ##   Call between Ltmp156 and Ltmp157
	.uleb128 Ltmp158-Lfunc_begin9   ##     jumps to Ltmp158
	.byte	0                       ##   On action: cleanup
	.uleb128 Ltmp159-Lfunc_begin9   ## >> Call Site 7 <<
	.uleb128 Ltmp160-Ltmp159        ##   Call between Ltmp159 and Ltmp160
	.uleb128 Ltmp161-Lfunc_begin9   ##     jumps to Ltmp161
	.byte	0                       ##   On action: cleanup
	.uleb128 Ltmp162-Lfunc_begin9   ## >> Call Site 8 <<
	.uleb128 Ltmp165-Ltmp162        ##   Call between Ltmp162 and Ltmp165
	.uleb128 Ltmp166-Lfunc_begin9   ##     jumps to Ltmp166
	.byte	0                       ##   On action: cleanup
	.uleb128 Ltmp167-Lfunc_begin9   ## >> Call Site 9 <<
	.uleb128 Ltmp168-Ltmp167        ##   Call between Ltmp167 and Ltmp168
	.uleb128 Ltmp169-Lfunc_begin9   ##     jumps to Ltmp169
	.byte	0                       ##   On action: cleanup
	.uleb128 Ltmp170-Lfunc_begin9   ## >> Call Site 10 <<
	.uleb128 Ltmp171-Ltmp170        ##   Call between Ltmp170 and Ltmp171
	.uleb128 Ltmp172-Lfunc_begin9   ##     jumps to Ltmp172
	.byte	0                       ##   On action: cleanup
	.uleb128 Ltmp173-Lfunc_begin9   ## >> Call Site 11 <<
	.uleb128 Ltmp174-Ltmp173        ##   Call between Ltmp173 and Ltmp174
	.uleb128 Ltmp175-Lfunc_begin9   ##     jumps to Ltmp175
	.byte	0                       ##   On action: cleanup
	.uleb128 Ltmp176-Lfunc_begin9   ## >> Call Site 12 <<
	.uleb128 Ltmp177-Ltmp176        ##   Call between Ltmp176 and Ltmp177
	.uleb128 Ltmp178-Lfunc_begin9   ##     jumps to Ltmp178
	.byte	0                       ##   On action: cleanup
	.uleb128 Ltmp179-Lfunc_begin9   ## >> Call Site 13 <<
	.uleb128 Ltmp180-Ltmp179        ##   Call between Ltmp179 and Ltmp180
	.uleb128 Ltmp181-Lfunc_begin9   ##     jumps to Ltmp181
	.byte	0                       ##   On action: cleanup
	.uleb128 Ltmp182-Lfunc_begin9   ## >> Call Site 14 <<
	.uleb128 Ltmp183-Ltmp182        ##   Call between Ltmp182 and Ltmp183
	.uleb128 Ltmp184-Lfunc_begin9   ##     jumps to Ltmp184
	.byte	0                       ##   On action: cleanup
	.uleb128 Ltmp185-Lfunc_begin9   ## >> Call Site 15 <<
	.uleb128 Ltmp188-Ltmp185        ##   Call between Ltmp185 and Ltmp188
	.uleb128 Ltmp189-Lfunc_begin9   ##     jumps to Ltmp189
	.byte	0                       ##   On action: cleanup
	.uleb128 Ltmp190-Lfunc_begin9   ## >> Call Site 16 <<
	.uleb128 Ltmp191-Ltmp190        ##   Call between Ltmp190 and Ltmp191
	.uleb128 Ltmp192-Lfunc_begin9   ##     jumps to Ltmp192
	.byte	0                       ##   On action: cleanup
	.uleb128 Ltmp193-Lfunc_begin9   ## >> Call Site 17 <<
	.uleb128 Ltmp194-Ltmp193        ##   Call between Ltmp193 and Ltmp194
	.uleb128 Ltmp195-Lfunc_begin9   ##     jumps to Ltmp195
	.byte	0                       ##   On action: cleanup
	.uleb128 Ltmp196-Lfunc_begin9   ## >> Call Site 18 <<
	.uleb128 Ltmp197-Ltmp196        ##   Call between Ltmp196 and Ltmp197
	.uleb128 Ltmp198-Lfunc_begin9   ##     jumps to Ltmp198
	.byte	0                       ##   On action: cleanup
	.uleb128 Ltmp199-Lfunc_begin9   ## >> Call Site 19 <<
	.uleb128 Ltmp200-Ltmp199        ##   Call between Ltmp199 and Ltmp200
	.uleb128 Ltmp201-Lfunc_begin9   ##     jumps to Ltmp201
	.byte	0                       ##   On action: cleanup
	.uleb128 Ltmp202-Lfunc_begin9   ## >> Call Site 20 <<
	.uleb128 Ltmp203-Ltmp202        ##   Call between Ltmp202 and Ltmp203
	.uleb128 Ltmp204-Lfunc_begin9   ##     jumps to Ltmp204
	.byte	0                       ##   On action: cleanup
	.uleb128 Ltmp205-Lfunc_begin9   ## >> Call Site 21 <<
	.uleb128 Ltmp206-Ltmp205        ##   Call between Ltmp205 and Ltmp206
	.uleb128 Ltmp207-Lfunc_begin9   ##     jumps to Ltmp207
	.byte	0                       ##   On action: cleanup
	.uleb128 Ltmp208-Lfunc_begin9   ## >> Call Site 22 <<
	.uleb128 Ltmp209-Ltmp208        ##   Call between Ltmp208 and Ltmp209
	.uleb128 Ltmp210-Lfunc_begin9   ##     jumps to Ltmp210
	.byte	0                       ##   On action: cleanup
	.uleb128 Ltmp211-Lfunc_begin9   ## >> Call Site 23 <<
	.uleb128 Ltmp212-Ltmp211        ##   Call between Ltmp211 and Ltmp212
	.uleb128 Ltmp213-Lfunc_begin9   ##     jumps to Ltmp213
	.byte	0                       ##   On action: cleanup
	.uleb128 Ltmp212-Lfunc_begin9   ## >> Call Site 24 <<
	.uleb128 Lfunc_end9-Ltmp212     ##   Call between Ltmp212 and Lfunc_end9
	.byte	0                       ##     has no landing pad
	.byte	0                       ##   On action: cleanup
Lcst_end9:
	.p2align	2
                                        ## -- End function
	.section	__TEXT,__text,regular,pure_instructions
	.p2align	4, 0x90         ## -- Begin function _ZNSt3__16vectorINS_12basic_stringIcNS_11char_traitsIcEENS_9allocatorIcEEEENS4_IS6_EEEC1Ev
__ZNSt3__16vectorINS_12basic_stringIcNS_11char_traitsIcEENS_9allocatorIcEEEENS4_IS6_EEEC1Ev: ## @_ZNSt3__16vectorINS_12basic_stringIcNS_11char_traitsIcEENS_9allocatorIcEEEENS4_IS6_EEEC1Ev
	.cfi_startproc
## %bb.0:
	pushq	%rbp
	.cfi_def_cfa_offset 16
	.cfi_offset %rbp, -16
	movq	%rsp, %rbp
	.cfi_def_cfa_register %rbp
	subq	$16, %rsp
	movq	%rdi, -8(%rbp)
	movq	-8(%rbp), %rdi
	callq	__ZNSt3__16vectorINS_12basic_stringIcNS_11char_traitsIcEENS_9allocatorIcEEEENS4_IS6_EEEC2Ev
	addq	$16, %rsp
	popq	%rbp
	retq
	.cfi_endproc
                                        ## -- End function
	.p2align	4, 0x90         ## -- Begin function _ZNSt3__16vectorINS_12basic_stringIcNS_11char_traitsIcEENS_9allocatorIcEEEENS4_IS6_EEED1Ev
__ZNSt3__16vectorINS_12basic_stringIcNS_11char_traitsIcEENS_9allocatorIcEEEENS4_IS6_EEED1Ev: ## @_ZNSt3__16vectorINS_12basic_stringIcNS_11char_traitsIcEENS_9allocatorIcEEEENS4_IS6_EEED1Ev
	.cfi_startproc
## %bb.0:
	pushq	%rbp
	.cfi_def_cfa_offset 16
	.cfi_offset %rbp, -16
	movq	%rsp, %rbp
	.cfi_def_cfa_register %rbp
	subq	$16, %rsp
	movq	%rdi, -8(%rbp)
	movq	-8(%rbp), %rdi
	callq	__ZNSt3__16vectorINS_12basic_stringIcNS_11char_traitsIcEENS_9allocatorIcEEEENS4_IS6_EEED2Ev
	addq	$16, %rsp
	popq	%rbp
	retq
	.cfi_endproc
                                        ## -- End function
	.p2align	4, 0x90         ## -- Begin function _ZNSt3__14pairIKNS_12basic_stringIcNS_11char_traitsIcEENS_9allocatorIcEEEE17ThirdPartyLibraryEC1ILb1ELb0EEERS7_RKS8_
__ZNSt3__14pairIKNS_12basic_stringIcNS_11char_traitsIcEENS_9allocatorIcEEEE17ThirdPartyLibraryEC1ILb1ELb0EEERS7_RKS8_: ## @_ZNSt3__14pairIKNS_12basic_stringIcNS_11char_traitsIcEENS_9allocatorIcEEEE17ThirdPartyLibraryEC1ILb1ELb0EEERS7_RKS8_
	.cfi_startproc
## %bb.0:
	pushq	%rbp
	.cfi_def_cfa_offset 16
	.cfi_offset %rbp, -16
	movq	%rsp, %rbp
	.cfi_def_cfa_register %rbp
	subq	$32, %rsp
	movq	%rdi, -8(%rbp)
	movq	%rsi, -16(%rbp)
	movq	%rdx, -24(%rbp)
	movq	-8(%rbp), %rdi
	movq	-16(%rbp), %rsi
	movq	-24(%rbp), %rdx
	callq	__ZNSt3__14pairIKNS_12basic_stringIcNS_11char_traitsIcEENS_9allocatorIcEEEE17ThirdPartyLibraryEC2ILb1ELb0EEERS7_RKS8_
	addq	$32, %rsp
	popq	%rbp
	retq
	.cfi_endproc
                                        ## -- End function
	.globl	__ZNSt3__113unordered_mapINS_12basic_stringIcNS_11char_traitsIcEENS_9allocatorIcEEEE17ThirdPartyLibraryNS_4hashIS6_EENS_8equal_toIS6_EENS4_INS_4pairIKS6_S7_EEEEEC1ESt16initializer_listISE_E ## -- Begin function _ZNSt3__113unordered_mapINS_12basic_stringIcNS_11char_traitsIcEENS_9allocatorIcEEEE17ThirdPartyLibraryNS_4hashIS6_EENS_8equal_toIS6_EENS4_INS_4pairIKS6_S7_EEEEEC1ESt16initializer_listISE_E
	.weak_def_can_be_hidden	__ZNSt3__113unordered_mapINS_12basic_stringIcNS_11char_traitsIcEENS_9allocatorIcEEEE17ThirdPartyLibraryNS_4hashIS6_EENS_8equal_toIS6_EENS4_INS_4pairIKS6_S7_EEEEEC1ESt16initializer_listISE_E
	.p2align	4, 0x90
__ZNSt3__113unordered_mapINS_12basic_stringIcNS_11char_traitsIcEENS_9allocatorIcEEEE17ThirdPartyLibraryNS_4hashIS6_EENS_8equal_toIS6_EENS4_INS_4pairIKS6_S7_EEEEEC1ESt16initializer_listISE_E: ## @_ZNSt3__113unordered_mapINS_12basic_stringIcNS_11char_traitsIcEENS_9allocatorIcEEEE17ThirdPartyLibraryNS_4hashIS6_EENS_8equal_toIS6_EENS4_INS_4pairIKS6_S7_EEEEEC1ESt16initializer_listISE_E
	.cfi_startproc
## %bb.0:
	pushq	%rbp
	.cfi_def_cfa_offset 16
	.cfi_offset %rbp, -16
	movq	%rsp, %rbp
	.cfi_def_cfa_register %rbp
	subq	$32, %rsp
	movq	%rsi, -16(%rbp)
	movq	%rdx, -8(%rbp)
	movq	%rdi, -24(%rbp)
	movq	-24(%rbp), %rdi
	movq	-16(%rbp), %rsi
	movq	-8(%rbp), %rdx
	callq	__ZNSt3__113unordered_mapINS_12basic_stringIcNS_11char_traitsIcEENS_9allocatorIcEEEE17ThirdPartyLibraryNS_4hashIS6_EENS_8equal_toIS6_EENS4_INS_4pairIKS6_S7_EEEEEC2ESt16initializer_listISE_E
	addq	$32, %rsp
	popq	%rbp
	retq
	.cfi_endproc
                                        ## -- End function
	.globl	__ZNSt3__14pairIKNS_12basic_stringIcNS_11char_traitsIcEENS_9allocatorIcEEEE17ThirdPartyLibraryED1Ev ## -- Begin function _ZNSt3__14pairIKNS_12basic_stringIcNS_11char_traitsIcEENS_9allocatorIcEEEE17ThirdPartyLibraryED1Ev
	.weak_def_can_be_hidden	__ZNSt3__14pairIKNS_12basic_stringIcNS_11char_traitsIcEENS_9allocatorIcEEEE17ThirdPartyLibraryED1Ev
	.p2align	4, 0x90
__ZNSt3__14pairIKNS_12basic_stringIcNS_11char_traitsIcEENS_9allocatorIcEEEE17ThirdPartyLibraryED1Ev: ## @_ZNSt3__14pairIKNS_12basic_stringIcNS_11char_traitsIcEENS_9allocatorIcEEEE17ThirdPartyLibraryED1Ev
	.cfi_startproc
## %bb.0:
	pushq	%rbp
	.cfi_def_cfa_offset 16
	.cfi_offset %rbp, -16
	movq	%rsp, %rbp
	.cfi_def_cfa_register %rbp
	subq	$16, %rsp
	movq	%rdi, -8(%rbp)
	movq	-8(%rbp), %rdi
	callq	__ZNSt3__14pairIKNS_12basic_stringIcNS_11char_traitsIcEENS_9allocatorIcEEEE17ThirdPartyLibraryED2Ev
	addq	$16, %rsp
	popq	%rbp
	retq
	.cfi_endproc
                                        ## -- End function
	.globl	__ZN17ThirdPartyLibraryD1Ev ## -- Begin function _ZN17ThirdPartyLibraryD1Ev
	.weak_def_can_be_hidden	__ZN17ThirdPartyLibraryD1Ev
	.p2align	4, 0x90
__ZN17ThirdPartyLibraryD1Ev:            ## @_ZN17ThirdPartyLibraryD1Ev
	.cfi_startproc
## %bb.0:
	pushq	%rbp
	.cfi_def_cfa_offset 16
	.cfi_offset %rbp, -16
	movq	%rsp, %rbp
	.cfi_def_cfa_register %rbp
	subq	$16, %rsp
	movq	%rdi, -8(%rbp)
	movq	-8(%rbp), %rdi
	callq	__ZN17ThirdPartyLibraryD2Ev
	addq	$16, %rsp
	popq	%rbp
	retq
	.cfi_endproc
                                        ## -- End function
	.p2align	4, 0x90         ## -- Begin function _ZNSt3__113unordered_mapINS_12basic_stringIcNS_11char_traitsIcEENS_9allocatorIcEEEE17ThirdPartyLibraryNS_4hashIS6_EENS_8equal_toIS6_EENS4_INS_4pairIKS6_S7_EEEEED1Ev
__ZNSt3__113unordered_mapINS_12basic_stringIcNS_11char_traitsIcEENS_9allocatorIcEEEE17ThirdPartyLibraryNS_4hashIS6_EENS_8equal_toIS6_EENS4_INS_4pairIKS6_S7_EEEEED1Ev: ## @_ZNSt3__113unordered_mapINS_12basic_stringIcNS_11char_traitsIcEENS_9allocatorIcEEEE17ThirdPartyLibraryNS_4hashIS6_EENS_8equal_toIS6_EENS4_INS_4pairIKS6_S7_EEEEED1Ev
	.cfi_startproc
## %bb.0:
	pushq	%rbp
	.cfi_def_cfa_offset 16
	.cfi_offset %rbp, -16
	movq	%rsp, %rbp
	.cfi_def_cfa_register %rbp
	subq	$16, %rsp
	movq	%rdi, -8(%rbp)
	movq	-8(%rbp), %rdi
	callq	__ZNSt3__113unordered_mapINS_12basic_stringIcNS_11char_traitsIcEENS_9allocatorIcEEEE17ThirdPartyLibraryNS_4hashIS6_EENS_8equal_toIS6_EENS4_INS_4pairIKS6_S7_EEEEED2Ev
	addq	$16, %rsp
	popq	%rbp
	retq
	.cfi_endproc
                                        ## -- End function
	.globl	__Z22create_third_party_dirRKNSt3__14__fs10filesystem4pathE ## -- Begin function _Z22create_third_party_dirRKNSt3__14__fs10filesystem4pathE
	.p2align	4, 0x90
__Z22create_third_party_dirRKNSt3__14__fs10filesystem4pathE: ## @_Z22create_third_party_dirRKNSt3__14__fs10filesystem4pathE
Lfunc_begin10:
	.cfi_startproc
	.cfi_personality 155, ___gxx_personality_v0
	.cfi_lsda 16, Lexception10
## %bb.0:
	pushq	%rbp
	.cfi_def_cfa_offset 16
	.cfi_offset %rbp, -16
	movq	%rsp, %rbp
	.cfi_def_cfa_register %rbp
	subq	$96, %rsp
	movq	%rdi, -8(%rbp)
	movq	-8(%rbp), %rsi
	leaq	L_.str.10(%rip), %rax
	leaq	-56(%rbp), %rcx
	xorl	%edx, %edx
	movq	%rcx, %rdi
	movq	%rsi, -80(%rbp)         ## 8-byte Spill
	movq	%rax, %rsi
	movq	%rcx, -88(%rbp)         ## 8-byte Spill
	callq	__ZNSt3__14__fs10filesystem4pathC1IA12_cvEERKT_NS2_6formatE
Ltmp214:
	leaq	-32(%rbp), %rdi
	movq	-80(%rbp), %rsi         ## 8-byte Reload
	movq	-88(%rbp), %rdx         ## 8-byte Reload
	callq	__ZNSt3__14__fs10filesystemdvERKNS1_4pathES4_
Ltmp215:
	jmp	LBB52_1
LBB52_1:
	leaq	-56(%rbp), %rdi
	callq	__ZNSt3__14__fs10filesystem4pathD1Ev
Ltmp217:
	leaq	-32(%rbp), %rdi
	callq	__ZNSt3__14__fs10filesystemL6existsERKNS1_4pathE
Ltmp218:
	movb	%al, -89(%rbp)          ## 1-byte Spill
	jmp	LBB52_2
LBB52_2:
	movb	-89(%rbp), %al          ## 1-byte Reload
	testb	$1, %al
	jne	LBB52_7
	jmp	LBB52_3
LBB52_3:
Ltmp219:
	leaq	-32(%rbp), %rdi
	callq	__ZNSt3__14__fs10filesystemL16create_directoryERKNS1_4pathE
Ltmp220:
	jmp	LBB52_4
LBB52_4:
	jmp	LBB52_7
LBB52_5:
Ltmp216:
                                        ## kill: def $edx killed $edx killed $rdx
	movq	%rax, -64(%rbp)
	movl	%edx, -68(%rbp)
	leaq	-56(%rbp), %rdi
	callq	__ZNSt3__14__fs10filesystem4pathD1Ev
	jmp	LBB52_8
LBB52_6:
Ltmp221:
                                        ## kill: def $edx killed $edx killed $rdx
	movq	%rax, -64(%rbp)
	movl	%edx, -68(%rbp)
	leaq	-32(%rbp), %rdi
	callq	__ZNSt3__14__fs10filesystem4pathD1Ev
	jmp	LBB52_8
LBB52_7:
	leaq	-32(%rbp), %rdi
	callq	__ZNSt3__14__fs10filesystem4pathD1Ev
	addq	$96, %rsp
	popq	%rbp
	retq
LBB52_8:
	movq	-64(%rbp), %rdi
	callq	__Unwind_Resume
	ud2
Lfunc_end10:
	.cfi_endproc
	.section	__TEXT,__gcc_except_tab
	.p2align	2
GCC_except_table52:
Lexception10:
	.byte	255                     ## @LPStart Encoding = omit
	.byte	255                     ## @TType Encoding = omit
	.byte	1                       ## Call site Encoding = uleb128
	.uleb128 Lcst_end10-Lcst_begin10
Lcst_begin10:
	.uleb128 Lfunc_begin10-Lfunc_begin10 ## >> Call Site 1 <<
	.uleb128 Ltmp214-Lfunc_begin10  ##   Call between Lfunc_begin10 and Ltmp214
	.byte	0                       ##     has no landing pad
	.byte	0                       ##   On action: cleanup
	.uleb128 Ltmp214-Lfunc_begin10  ## >> Call Site 2 <<
	.uleb128 Ltmp215-Ltmp214        ##   Call between Ltmp214 and Ltmp215
	.uleb128 Ltmp216-Lfunc_begin10  ##     jumps to Ltmp216
	.byte	0                       ##   On action: cleanup
	.uleb128 Ltmp217-Lfunc_begin10  ## >> Call Site 3 <<
	.uleb128 Ltmp220-Ltmp217        ##   Call between Ltmp217 and Ltmp220
	.uleb128 Ltmp221-Lfunc_begin10  ##     jumps to Ltmp221
	.byte	0                       ##   On action: cleanup
	.uleb128 Ltmp220-Lfunc_begin10  ## >> Call Site 4 <<
	.uleb128 Lfunc_end10-Ltmp220    ##   Call between Ltmp220 and Lfunc_end10
	.byte	0                       ##     has no landing pad
	.byte	0                       ##   On action: cleanup
Lcst_end10:
	.p2align	2
                                        ## -- End function
	.section	__TEXT,__text,regular,pure_instructions
	.globl	__Z28download_and_extract_libraryRKNSt3__14__fs10filesystem4pathERK17ThirdPartyLibrary ## -- Begin function _Z28download_and_extract_libraryRKNSt3__14__fs10filesystem4pathERK17ThirdPartyLibrary
	.p2align	4, 0x90
__Z28download_and_extract_libraryRKNSt3__14__fs10filesystem4pathERK17ThirdPartyLibrary: ## @_Z28download_and_extract_libraryRKNSt3__14__fs10filesystem4pathERK17ThirdPartyLibrary
Lfunc_begin11:
	.cfi_startproc
	.cfi_personality 155, ___gxx_personality_v0
	.cfi_lsda 16, Lexception11
## %bb.0:
	pushq	%rbp
	.cfi_def_cfa_offset 16
	.cfi_offset %rbp, -16
	movq	%rsp, %rbp
	.cfi_def_cfa_register %rbp
	subq	$688, %rsp              ## imm = 0x2B0
	movq	%rdi, -16(%rbp)
	movq	%rsi, -24(%rbp)
	movq	-16(%rbp), %rsi
	leaq	L_.str.10(%rip), %rax
	leaq	-72(%rbp), %rcx
	xorl	%edx, %edx
	movq	%rcx, %rdi
	movq	%rsi, -504(%rbp)        ## 8-byte Spill
	movq	%rax, %rsi
	movq	%rcx, -512(%rbp)        ## 8-byte Spill
	callq	__ZNSt3__14__fs10filesystem4pathC1IA12_cvEERKT_NS2_6formatE
Ltmp222:
	leaq	-48(%rbp), %rdi
	movq	-504(%rbp), %rsi        ## 8-byte Reload
	movq	-512(%rbp), %rdx        ## 8-byte Reload
	callq	__ZNSt3__14__fs10filesystemdvERKNS1_4pathES4_
Ltmp223:
	jmp	LBB53_1
LBB53_1:
	leaq	-72(%rbp), %rdi
	callq	__ZNSt3__14__fs10filesystem4pathD1Ev
	movq	-24(%rbp), %rsi
Ltmp225:
	leaq	L_.str.47(%rip), %rdx
	leaq	-160(%rbp), %rdi
	callq	__ZNSt3__1plIcNS_11char_traitsIcEENS_9allocatorIcEEEENS_12basic_stringIT_T0_T1_EERKS9_PKS6_
Ltmp226:
	jmp	LBB53_2
LBB53_2:
	leaq	-136(%rbp), %rax
	leaq	-160(%rbp), %rsi
	xorl	%edx, %edx
	movq	%rax, %rdi
	movq	%rax, -520(%rbp)        ## 8-byte Spill
	callq	__ZNSt3__14__fs10filesystem4pathC1EONS_12basic_stringIcNS_11char_traitsIcEENS_9allocatorIcEEEENS2_6formatE
Ltmp228:
	leaq	-112(%rbp), %rdi
	leaq	-48(%rbp), %rsi
	movq	-520(%rbp), %rdx        ## 8-byte Reload
	callq	__ZNSt3__14__fs10filesystemdvERKNS1_4pathES4_
Ltmp229:
	jmp	LBB53_3
LBB53_3:
	leaq	-136(%rbp), %rdi
	callq	__ZNSt3__14__fs10filesystem4pathD1Ev
	leaq	-160(%rbp), %rdi
	callq	__ZNSt3__112basic_stringIcNS_11char_traitsIcEENS_9allocatorIcEEED1Ev
Ltmp231:
	movq	__ZNSt3__14coutE@GOTPCREL(%rip), %rdi
	leaq	L_.str.48(%rip), %rsi
	callq	__ZNSt3__1lsINS_11char_traitsIcEEEERNS_13basic_ostreamIcT_EES6_PKc
Ltmp232:
	movq	%rax, -528(%rbp)        ## 8-byte Spill
	jmp	LBB53_4
LBB53_4:
	movq	-24(%rbp), %rsi
Ltmp233:
	movq	-528(%rbp), %rdi        ## 8-byte Reload
	callq	__ZNSt3__1lsIcNS_11char_traitsIcEENS_9allocatorIcEEEERNS_13basic_ostreamIT_T0_EES9_RKNS_12basic_stringIS6_S7_T1_EE
Ltmp234:
	movq	%rax, -536(%rbp)        ## 8-byte Spill
	jmp	LBB53_5
LBB53_5:
Ltmp235:
	leaq	L_.str.49(%rip), %rsi
	movq	-536(%rbp), %rdi        ## 8-byte Reload
	callq	__ZNSt3__1lsINS_11char_traitsIcEEEERNS_13basic_ostreamIcT_EES6_PKc
Ltmp236:
	jmp	LBB53_6
LBB53_6:
Ltmp237:
	leaq	-280(%rbp), %rdi
	leaq	-112(%rbp), %rsi
	callq	__ZNKSt3__14__fs10filesystem4path6stringEv
Ltmp238:
	jmp	LBB53_7
LBB53_7:
Ltmp240:
	leaq	L_.str.50(%rip), %rsi
	leaq	-256(%rbp), %rdi
	leaq	-280(%rbp), %rdx
	callq	__ZNSt3__1plIcNS_11char_traitsIcEENS_9allocatorIcEEEENS_12basic_stringIT_T0_T1_EEPKS6_OS9_
Ltmp241:
	jmp	LBB53_8
LBB53_8:
Ltmp243:
	leaq	L_.str.51(%rip), %rdx
	leaq	-232(%rbp), %rdi
	leaq	-256(%rbp), %rsi
	callq	__ZNSt3__1plIcNS_11char_traitsIcEENS_9allocatorIcEEEENS_12basic_stringIT_T0_T1_EEOS9_PKS6_
Ltmp244:
	jmp	LBB53_9
LBB53_9:
	movq	-24(%rbp), %rax
	addq	$24, %rax
Ltmp246:
	leaq	-208(%rbp), %rdi
	leaq	-232(%rbp), %rsi
	movq	%rax, %rdx
	callq	__ZNSt3__1plIcNS_11char_traitsIcEENS_9allocatorIcEEEENS_12basic_stringIT_T0_T1_EEOS9_RKS9_
Ltmp247:
	jmp	LBB53_10
LBB53_10:
Ltmp249:
	leaq	L_.str.52(%rip), %rdx
	leaq	-184(%rbp), %rdi
	leaq	-208(%rbp), %rsi
	callq	__ZNSt3__1plIcNS_11char_traitsIcEENS_9allocatorIcEEEENS_12basic_stringIT_T0_T1_EEOS9_PKS6_
Ltmp250:
	jmp	LBB53_11
LBB53_11:
	leaq	-208(%rbp), %rdi
	callq	__ZNSt3__112basic_stringIcNS_11char_traitsIcEENS_9allocatorIcEEED1Ev
	leaq	-232(%rbp), %rdi
	callq	__ZNSt3__112basic_stringIcNS_11char_traitsIcEENS_9allocatorIcEEED1Ev
	leaq	-256(%rbp), %rdi
	callq	__ZNSt3__112basic_stringIcNS_11char_traitsIcEENS_9allocatorIcEEED1Ev
	leaq	-280(%rbp), %rdi
	callq	__ZNSt3__112basic_stringIcNS_11char_traitsIcEENS_9allocatorIcEEED1Ev
	leaq	-184(%rbp), %rdi
	callq	__ZNKSt3__112basic_stringIcNS_11char_traitsIcEENS_9allocatorIcEEE5c_strEv
Ltmp252:
	movq	%rax, %rdi
	callq	_system
Ltmp253:
	movl	%eax, -540(%rbp)        ## 4-byte Spill
	jmp	LBB53_12
LBB53_12:
	movl	-540(%rbp), %eax        ## 4-byte Reload
	movl	%eax, -284(%rbp)
	cmpl	$0, -284(%rbp)
	je	LBB53_29
## %bb.13:
Ltmp334:
	movq	__ZNSt3__14cerrE@GOTPCREL(%rip), %rdi
	leaq	L_.str.53(%rip), %rsi
	callq	__ZNSt3__1lsINS_11char_traitsIcEEEERNS_13basic_ostreamIcT_EES6_PKc
Ltmp335:
	movq	%rax, -552(%rbp)        ## 8-byte Spill
	jmp	LBB53_14
LBB53_14:
	movq	-24(%rbp), %rsi
Ltmp336:
	movq	-552(%rbp), %rdi        ## 8-byte Reload
	callq	__ZNSt3__1lsIcNS_11char_traitsIcEENS_9allocatorIcEEEERNS_13basic_ostreamIT_T0_EES9_RKNS_12basic_stringIS6_S7_T1_EE
Ltmp337:
	movq	%rax, -560(%rbp)        ## 8-byte Spill
	jmp	LBB53_15
LBB53_15:
Ltmp338:
	leaq	__ZNSt3__1L4endlIcNS_11char_traitsIcEEEERNS_13basic_ostreamIT_T0_EES7_(%rip), %rsi
	movq	-560(%rbp), %rdi        ## 8-byte Reload
	callq	__ZNSt3__113basic_ostreamIcNS_11char_traitsIcEEElsEPFRS3_S4_E
Ltmp339:
	jmp	LBB53_16
LBB53_16:
	movb	$0, -1(%rbp)
	movl	$1, -288(%rbp)
	jmp	LBB53_91
LBB53_17:
Ltmp224:
                                        ## kill: def $edx killed $edx killed $rdx
	movq	%rax, -80(%rbp)
	movl	%edx, -84(%rbp)
	leaq	-72(%rbp), %rdi
	callq	__ZNSt3__14__fs10filesystem4pathD1Ev
	jmp	LBB53_95
LBB53_18:
Ltmp227:
                                        ## kill: def $edx killed $edx killed $rdx
	movq	%rax, -80(%rbp)
	movl	%edx, -84(%rbp)
	jmp	LBB53_94
LBB53_19:
Ltmp230:
                                        ## kill: def $edx killed $edx killed $rdx
	movq	%rax, -80(%rbp)
	movl	%edx, -84(%rbp)
	leaq	-136(%rbp), %rdi
	callq	__ZNSt3__14__fs10filesystem4pathD1Ev
	leaq	-160(%rbp), %rdi
	callq	__ZNSt3__112basic_stringIcNS_11char_traitsIcEENS_9allocatorIcEEED1Ev
	jmp	LBB53_94
LBB53_20:
Ltmp239:
                                        ## kill: def $edx killed $edx killed $rdx
	movq	%rax, -80(%rbp)
	movl	%edx, -84(%rbp)
	jmp	LBB53_93
LBB53_21:
Ltmp242:
                                        ## kill: def $edx killed $edx killed $rdx
	movq	%rax, -80(%rbp)
	movl	%edx, -84(%rbp)
	jmp	LBB53_27
LBB53_22:
Ltmp245:
                                        ## kill: def $edx killed $edx killed $rdx
	movq	%rax, -80(%rbp)
	movl	%edx, -84(%rbp)
	jmp	LBB53_26
LBB53_23:
Ltmp248:
                                        ## kill: def $edx killed $edx killed $rdx
	movq	%rax, -80(%rbp)
	movl	%edx, -84(%rbp)
	jmp	LBB53_25
LBB53_24:
Ltmp251:
                                        ## kill: def $edx killed $edx killed $rdx
	movq	%rax, -80(%rbp)
	movl	%edx, -84(%rbp)
	leaq	-208(%rbp), %rdi
	callq	__ZNSt3__112basic_stringIcNS_11char_traitsIcEENS_9allocatorIcEEED1Ev
LBB53_25:
	leaq	-232(%rbp), %rdi
	callq	__ZNSt3__112basic_stringIcNS_11char_traitsIcEENS_9allocatorIcEEED1Ev
LBB53_26:
	leaq	-256(%rbp), %rdi
	callq	__ZNSt3__112basic_stringIcNS_11char_traitsIcEENS_9allocatorIcEEED1Ev
LBB53_27:
	leaq	-280(%rbp), %rdi
	callq	__ZNSt3__112basic_stringIcNS_11char_traitsIcEENS_9allocatorIcEEED1Ev
	jmp	LBB53_93
LBB53_28:
Ltmp340:
                                        ## kill: def $edx killed $edx killed $rdx
	movq	%rax, -80(%rbp)
	movl	%edx, -84(%rbp)
	jmp	LBB53_92
LBB53_29:
Ltmp254:
	movq	__ZNSt3__14coutE@GOTPCREL(%rip), %rdi
	leaq	L_.str.54(%rip), %rsi
	callq	__ZNSt3__1lsINS_11char_traitsIcEEEERNS_13basic_ostreamIcT_EES6_PKc
Ltmp255:
	movq	%rax, -568(%rbp)        ## 8-byte Spill
	jmp	LBB53_30
LBB53_30:
	movq	-24(%rbp), %rsi
Ltmp256:
	movq	-568(%rbp), %rdi        ## 8-byte Reload
	callq	__ZNSt3__1lsIcNS_11char_traitsIcEENS_9allocatorIcEEEERNS_13basic_ostreamIT_T0_EES9_RKNS_12basic_stringIS6_S7_T1_EE
Ltmp257:
	movq	%rax, -576(%rbp)        ## 8-byte Spill
	jmp	LBB53_31
LBB53_31:
Ltmp258:
	leaq	L_.str.49(%rip), %rsi
	movq	-576(%rbp), %rdi        ## 8-byte Reload
	callq	__ZNSt3__1lsINS_11char_traitsIcEEEERNS_13basic_ostreamIcT_EES6_PKc
Ltmp259:
	jmp	LBB53_32
LBB53_32:
	movq	-24(%rbp), %rax
	addq	$144, %rax
	movq	%rax, %rdi
	callq	__ZNKSt3__112basic_stringIcNS_11char_traitsIcEENS_9allocatorIcEEE5emptyEv
	testb	$1, %al
	jne	LBB53_62
## %bb.33:
Ltmp260:
	movq	__ZNSt3__14coutE@GOTPCREL(%rip), %rdi
	leaq	L_.str.55(%rip), %rsi
	callq	__ZNSt3__1lsINS_11char_traitsIcEEEERNS_13basic_ostreamIcT_EES6_PKc
Ltmp261:
	jmp	LBB53_34
LBB53_34:
Ltmp262:
	leaq	-312(%rbp), %rdi
	leaq	-112(%rbp), %rsi
	callq	__ZN6SHA2569hash_fileERKNSt3__14__fs10filesystem4pathE
Ltmp263:
	jmp	LBB53_35
LBB53_35:
	leaq	-312(%rbp), %rax
	movq	%rax, %rdi
	movq	%rax, -584(%rbp)        ## 8-byte Spill
	callq	__ZNSt3__112basic_stringIcNS_11char_traitsIcEENS_9allocatorIcEEE5beginEv
	movq	%rax, -320(%rbp)
	movq	-584(%rbp), %rdi        ## 8-byte Reload
	callq	__ZNSt3__112basic_stringIcNS_11char_traitsIcEENS_9allocatorIcEEE3endEv
	movq	%rax, -328(%rbp)
	movq	-584(%rbp), %rdi        ## 8-byte Reload
	callq	__ZNSt3__112basic_stringIcNS_11char_traitsIcEENS_9allocatorIcEEE5beginEv
	movq	%rax, -336(%rbp)
	movq	-320(%rbp), %rdi
	movq	-328(%rbp), %rsi
	movq	-336(%rbp), %rdx
Ltmp265:
	movq	__Z7toloweri@GOTPCREL(%rip), %rcx
	callq	__ZNSt3__1L9transformINS_11__wrap_iterIPcEES3_PFiiEEET0_T_S7_S6_T1_
Ltmp266:
	movq	%rax, -592(%rbp)        ## 8-byte Spill
	jmp	LBB53_36
LBB53_36:
	movq	-592(%rbp), %rax        ## 8-byte Reload
	movq	%rax, -344(%rbp)
	movq	-24(%rbp), %rcx
	addq	$144, %rcx
	leaq	-312(%rbp), %rdi
	movq	%rcx, %rsi
	callq	__ZNSt3__1neIcNS_11char_traitsIcEENS_9allocatorIcEEEEbRKNS_12basic_stringIT_T0_T1_EESB_
	testb	$1, %al
	jne	LBB53_37
	jmp	LBB53_54
LBB53_37:
Ltmp269:
	movq	__ZNSt3__14cerrE@GOTPCREL(%rip), %rdi
	leaq	L_.str.56(%rip), %rsi
	callq	__ZNSt3__1lsINS_11char_traitsIcEEEERNS_13basic_ostreamIcT_EES6_PKc
Ltmp270:
	jmp	LBB53_38
LBB53_38:
Ltmp271:
	movq	__ZNSt3__14cerrE@GOTPCREL(%rip), %rdi
	leaq	L_.str.57(%rip), %rsi
	callq	__ZNSt3__1lsINS_11char_traitsIcEEEERNS_13basic_ostreamIcT_EES6_PKc
Ltmp272:
	movq	%rax, -600(%rbp)        ## 8-byte Spill
	jmp	LBB53_39
LBB53_39:
	movq	-24(%rbp), %rax
	addq	$144, %rax
Ltmp273:
	movq	-600(%rbp), %rdi        ## 8-byte Reload
	movq	%rax, %rsi
	callq	__ZNSt3__1lsIcNS_11char_traitsIcEENS_9allocatorIcEEEERNS_13basic_ostreamIT_T0_EES9_RKNS_12basic_stringIS6_S7_T1_EE
Ltmp274:
	movq	%rax, -608(%rbp)        ## 8-byte Spill
	jmp	LBB53_40
LBB53_40:
Ltmp275:
	leaq	L_.str.58(%rip), %rsi
	movq	-608(%rbp), %rdi        ## 8-byte Reload
	callq	__ZNSt3__1lsINS_11char_traitsIcEEEERNS_13basic_ostreamIcT_EES6_PKc
Ltmp276:
	jmp	LBB53_41
LBB53_41:
Ltmp277:
	movq	__ZNSt3__14cerrE@GOTPCREL(%rip), %rdi
	leaq	L_.str.59(%rip), %rsi
	callq	__ZNSt3__1lsINS_11char_traitsIcEEEERNS_13basic_ostreamIcT_EES6_PKc
Ltmp278:
	movq	%rax, -616(%rbp)        ## 8-byte Spill
	jmp	LBB53_42
LBB53_42:
Ltmp279:
	leaq	-312(%rbp), %rsi
	movq	-616(%rbp), %rdi        ## 8-byte Reload
	callq	__ZNSt3__1lsIcNS_11char_traitsIcEENS_9allocatorIcEEEERNS_13basic_ostreamIT_T0_EES9_RKNS_12basic_stringIS6_S7_T1_EE
Ltmp280:
	movq	%rax, -624(%rbp)        ## 8-byte Spill
	jmp	LBB53_43
LBB53_43:
Ltmp281:
	leaq	L_.str.58(%rip), %rsi
	movq	-624(%rbp), %rdi        ## 8-byte Reload
	callq	__ZNSt3__1lsINS_11char_traitsIcEEEERNS_13basic_ostreamIcT_EES6_PKc
Ltmp282:
	jmp	LBB53_44
LBB53_44:
Ltmp283:
	leaq	-112(%rbp), %rdi
	callq	__ZNSt3__14__fs10filesystemL6removeERKNS1_4pathE
Ltmp284:
	jmp	LBB53_45
LBB53_45:
	movb	$0, -1(%rbp)
	movl	$1, -288(%rbp)
	jmp	LBB53_56
LBB53_46:
Ltmp264:
                                        ## kill: def $edx killed $edx killed $rdx
	movq	%rax, -80(%rbp)
	movl	%edx, -84(%rbp)
	jmp	LBB53_48
LBB53_47:
Ltmp285:
                                        ## kill: def $edx killed $edx killed $rdx
	movq	%rax, -80(%rbp)
	movl	%edx, -84(%rbp)
	leaq	-312(%rbp), %rdi
	callq	__ZNSt3__112basic_stringIcNS_11char_traitsIcEENS_9allocatorIcEEED1Ev
LBB53_48:
	movl	-84(%rbp), %eax
	movl	$1, %ecx
	cmpl	%ecx, %eax
	jne	LBB53_92
## %bb.49:
	movq	-80(%rbp), %rdi
	callq	___cxa_begin_catch
	movq	%rax, -352(%rbp)
Ltmp286:
	movq	__ZNSt3__14cerrE@GOTPCREL(%rip), %rdi
	leaq	L_.str.61(%rip), %rsi
	callq	__ZNSt3__1lsINS_11char_traitsIcEEEERNS_13basic_ostreamIcT_EES6_PKc
Ltmp287:
	movq	%rax, -632(%rbp)        ## 8-byte Spill
	jmp	LBB53_50
LBB53_50:
	movq	-352(%rbp), %rax
	movq	(%rax), %rcx
	movq	16(%rcx), %rcx
	movq	%rax, %rdi
	callq	*%rcx
Ltmp288:
	movq	-632(%rbp), %rdi        ## 8-byte Reload
	movq	%rax, %rsi
	callq	__ZNSt3__1lsINS_11char_traitsIcEEEERNS_13basic_ostreamIcT_EES6_PKc
Ltmp289:
	movq	%rax, -640(%rbp)        ## 8-byte Spill
	jmp	LBB53_51
LBB53_51:
Ltmp290:
	leaq	__ZNSt3__1L4endlIcNS_11char_traitsIcEEEERNS_13basic_ostreamIT_T0_EES7_(%rip), %rsi
	movq	-640(%rbp), %rdi        ## 8-byte Reload
	callq	__ZNSt3__113basic_ostreamIcNS_11char_traitsIcEEElsEPFRS3_S4_E
Ltmp291:
	jmp	LBB53_52
LBB53_52:
Ltmp292:
	leaq	-112(%rbp), %rdi
	callq	__ZNSt3__14__fs10filesystemL6removeERKNS1_4pathE
Ltmp293:
	jmp	LBB53_53
LBB53_53:
	movb	$0, -1(%rbp)
	movl	$1, -288(%rbp)
Ltmp298:
	callq	___cxa_end_catch
Ltmp299:
	jmp	LBB53_59
LBB53_54:
Ltmp267:
	movq	__ZNSt3__14coutE@GOTPCREL(%rip), %rdi
	leaq	L_.str.60(%rip), %rsi
	callq	__ZNSt3__1lsINS_11char_traitsIcEEEERNS_13basic_ostreamIcT_EES6_PKc
Ltmp268:
	jmp	LBB53_55
LBB53_55:
	movl	$0, -288(%rbp)
LBB53_56:
	leaq	-312(%rbp), %rdi
	callq	__ZNSt3__112basic_stringIcNS_11char_traitsIcEENS_9allocatorIcEEED1Ev
	movl	-288(%rbp), %eax
	testl	%eax, %eax
	jne	LBB53_91
	jmp	LBB53_57
LBB53_57:
	jmp	LBB53_61
LBB53_58:
Ltmp294:
                                        ## kill: def $edx killed $edx killed $rdx
	movq	%rax, -80(%rbp)
	movl	%edx, -84(%rbp)
Ltmp295:
	callq	___cxa_end_catch
Ltmp296:
	jmp	LBB53_60
LBB53_59:
	jmp	LBB53_91
LBB53_60:
	jmp	LBB53_92
LBB53_61:
	jmp	LBB53_66
LBB53_62:
Ltmp300:
	movq	__ZNSt3__14coutE@GOTPCREL(%rip), %rdi
	leaq	L_.str.62(%rip), %rsi
	callq	__ZNSt3__1lsINS_11char_traitsIcEEEERNS_13basic_ostreamIcT_EES6_PKc
Ltmp301:
	movq	%rax, -648(%rbp)        ## 8-byte Spill
	jmp	LBB53_63
LBB53_63:
	movq	-24(%rbp), %rsi
Ltmp302:
	movq	-648(%rbp), %rdi        ## 8-byte Reload
	callq	__ZNSt3__1lsIcNS_11char_traitsIcEENS_9allocatorIcEEEERNS_13basic_ostreamIT_T0_EES9_RKNS_12basic_stringIS6_S7_T1_EE
Ltmp303:
	movq	%rax, -656(%rbp)        ## 8-byte Spill
	jmp	LBB53_64
LBB53_64:
Ltmp304:
	leaq	L_.str.63(%rip), %rsi
	movq	-656(%rbp), %rdi        ## 8-byte Reload
	callq	__ZNSt3__1lsINS_11char_traitsIcEEEERNS_13basic_ostreamIcT_EES6_PKc
Ltmp305:
	jmp	LBB53_65
LBB53_65:
	jmp	LBB53_66
LBB53_66:
Ltmp306:
	leaq	-472(%rbp), %rdi
	leaq	-112(%rbp), %rsi
	callq	__ZNKSt3__14__fs10filesystem4path6stringEv
Ltmp307:
	jmp	LBB53_67
LBB53_67:
Ltmp308:
	leaq	L_.str.64(%rip), %rsi
	leaq	-448(%rbp), %rdi
	leaq	-472(%rbp), %rdx
	callq	__ZNSt3__1plIcNS_11char_traitsIcEENS_9allocatorIcEEEENS_12basic_stringIT_T0_T1_EEPKS6_OS9_
Ltmp309:
	jmp	LBB53_68
LBB53_68:
Ltmp311:
	leaq	L_.str.65(%rip), %rdx
	leaq	-424(%rbp), %rdi
	leaq	-448(%rbp), %rsi
	callq	__ZNSt3__1plIcNS_11char_traitsIcEENS_9allocatorIcEEEENS_12basic_stringIT_T0_T1_EEOS9_PKS6_
Ltmp312:
	jmp	LBB53_69
LBB53_69:
Ltmp314:
	leaq	-496(%rbp), %rdi
	leaq	-48(%rbp), %rsi
	callq	__ZNKSt3__14__fs10filesystem4path6stringEv
Ltmp315:
	jmp	LBB53_70
LBB53_70:
Ltmp317:
	leaq	-400(%rbp), %rdi
	leaq	-424(%rbp), %rsi
	leaq	-496(%rbp), %rdx
	callq	__ZNSt3__1plIcNS_11char_traitsIcEENS_9allocatorIcEEEENS_12basic_stringIT_T0_T1_EEOS9_SA_
Ltmp318:
	jmp	LBB53_71
LBB53_71:
Ltmp320:
	leaq	L_.str.52(%rip), %rdx
	leaq	-376(%rbp), %rdi
	leaq	-400(%rbp), %rsi
	callq	__ZNSt3__1plIcNS_11char_traitsIcEENS_9allocatorIcEEEENS_12basic_stringIT_T0_T1_EEOS9_PKS6_
Ltmp321:
	jmp	LBB53_72
LBB53_72:
	leaq	-400(%rbp), %rdi
	callq	__ZNSt3__112basic_stringIcNS_11char_traitsIcEENS_9allocatorIcEEED1Ev
	leaq	-496(%rbp), %rdi
	callq	__ZNSt3__112basic_stringIcNS_11char_traitsIcEENS_9allocatorIcEEED1Ev
	leaq	-424(%rbp), %rdi
	callq	__ZNSt3__112basic_stringIcNS_11char_traitsIcEENS_9allocatorIcEEED1Ev
	leaq	-448(%rbp), %rdi
	callq	__ZNSt3__112basic_stringIcNS_11char_traitsIcEENS_9allocatorIcEEED1Ev
	leaq	-472(%rbp), %rdi
	callq	__ZNSt3__112basic_stringIcNS_11char_traitsIcEENS_9allocatorIcEEED1Ev
	leaq	-376(%rbp), %rdi
	callq	__ZNKSt3__112basic_stringIcNS_11char_traitsIcEENS_9allocatorIcEEE5c_strEv
Ltmp323:
	movq	%rax, %rdi
	callq	_system
Ltmp324:
	movl	%eax, -660(%rbp)        ## 4-byte Spill
	jmp	LBB53_73
LBB53_73:
	movl	-660(%rbp), %eax        ## 4-byte Reload
	movl	%eax, -284(%rbp)
	cmpl	$0, -284(%rbp)
	je	LBB53_88
## %bb.74:
Ltmp327:
	movq	__ZNSt3__14cerrE@GOTPCREL(%rip), %rdi
	leaq	L_.str.66(%rip), %rsi
	callq	__ZNSt3__1lsINS_11char_traitsIcEEEERNS_13basic_ostreamIcT_EES6_PKc
Ltmp328:
	movq	%rax, -672(%rbp)        ## 8-byte Spill
	jmp	LBB53_75
LBB53_75:
	movq	-24(%rbp), %rsi
Ltmp329:
	movq	-672(%rbp), %rdi        ## 8-byte Reload
	callq	__ZNSt3__1lsIcNS_11char_traitsIcEENS_9allocatorIcEEEERNS_13basic_ostreamIT_T0_EES9_RKNS_12basic_stringIS6_S7_T1_EE
Ltmp330:
	movq	%rax, -680(%rbp)        ## 8-byte Spill
	jmp	LBB53_76
LBB53_76:
Ltmp331:
	leaq	__ZNSt3__1L4endlIcNS_11char_traitsIcEEEERNS_13basic_ostreamIT_T0_EES7_(%rip), %rsi
	movq	-680(%rbp), %rdi        ## 8-byte Reload
	callq	__ZNSt3__113basic_ostreamIcNS_11char_traitsIcEEElsEPFRS3_S4_E
Ltmp332:
	jmp	LBB53_77
LBB53_77:
	movb	$0, -1(%rbp)
	movl	$1, -288(%rbp)
	jmp	LBB53_90
LBB53_78:
Ltmp310:
                                        ## kill: def $edx killed $edx killed $rdx
	movq	%rax, -80(%rbp)
	movl	%edx, -84(%rbp)
	jmp	LBB53_86
LBB53_79:
Ltmp313:
                                        ## kill: def $edx killed $edx killed $rdx
	movq	%rax, -80(%rbp)
	movl	%edx, -84(%rbp)
	jmp	LBB53_85
LBB53_80:
Ltmp316:
                                        ## kill: def $edx killed $edx killed $rdx
	movq	%rax, -80(%rbp)
	movl	%edx, -84(%rbp)
	jmp	LBB53_84
LBB53_81:
Ltmp319:
                                        ## kill: def $edx killed $edx killed $rdx
	movq	%rax, -80(%rbp)
	movl	%edx, -84(%rbp)
	jmp	LBB53_83
LBB53_82:
Ltmp322:
                                        ## kill: def $edx killed $edx killed $rdx
	movq	%rax, -80(%rbp)
	movl	%edx, -84(%rbp)
	leaq	-400(%rbp), %rdi
	callq	__ZNSt3__112basic_stringIcNS_11char_traitsIcEENS_9allocatorIcEEED1Ev
LBB53_83:
	leaq	-496(%rbp), %rdi
	callq	__ZNSt3__112basic_stringIcNS_11char_traitsIcEENS_9allocatorIcEEED1Ev
LBB53_84:
	leaq	-424(%rbp), %rdi
	callq	__ZNSt3__112basic_stringIcNS_11char_traitsIcEENS_9allocatorIcEEED1Ev
LBB53_85:
	leaq	-448(%rbp), %rdi
	callq	__ZNSt3__112basic_stringIcNS_11char_traitsIcEENS_9allocatorIcEEED1Ev
LBB53_86:
	leaq	-472(%rbp), %rdi
	callq	__ZNSt3__112basic_stringIcNS_11char_traitsIcEENS_9allocatorIcEEED1Ev
	jmp	LBB53_92
LBB53_87:
Ltmp333:
                                        ## kill: def $edx killed $edx killed $rdx
	movq	%rax, -80(%rbp)
	movl	%edx, -84(%rbp)
	leaq	-376(%rbp), %rdi
	callq	__ZNSt3__112basic_stringIcNS_11char_traitsIcEENS_9allocatorIcEEED1Ev
	jmp	LBB53_92
LBB53_88:
Ltmp325:
	leaq	-112(%rbp), %rdi
	callq	__ZNSt3__14__fs10filesystemL6removeERKNS1_4pathE
Ltmp326:
	jmp	LBB53_89
LBB53_89:
	movb	$1, -1(%rbp)
	movl	$1, -288(%rbp)
LBB53_90:
	leaq	-376(%rbp), %rdi
	callq	__ZNSt3__112basic_stringIcNS_11char_traitsIcEENS_9allocatorIcEEED1Ev
LBB53_91:
	leaq	-184(%rbp), %rdi
	callq	__ZNSt3__112basic_stringIcNS_11char_traitsIcEENS_9allocatorIcEEED1Ev
	leaq	-112(%rbp), %rdi
	callq	__ZNSt3__14__fs10filesystem4pathD1Ev
	leaq	-48(%rbp), %rdi
	callq	__ZNSt3__14__fs10filesystem4pathD1Ev
	movb	-1(%rbp), %al
	andb	$1, %al
	movzbl	%al, %eax
	addq	$688, %rsp              ## imm = 0x2B0
	popq	%rbp
	retq
LBB53_92:
	leaq	-184(%rbp), %rdi
	callq	__ZNSt3__112basic_stringIcNS_11char_traitsIcEENS_9allocatorIcEEED1Ev
LBB53_93:
	leaq	-112(%rbp), %rdi
	callq	__ZNSt3__14__fs10filesystem4pathD1Ev
LBB53_94:
	leaq	-48(%rbp), %rdi
	callq	__ZNSt3__14__fs10filesystem4pathD1Ev
LBB53_95:
	movq	-80(%rbp), %rdi
	callq	__Unwind_Resume
	ud2
LBB53_96:
Ltmp297:
	movq	%rax, %rdi
	movq	%rdx, -688(%rbp)        ## 8-byte Spill
	callq	___clang_call_terminate
Lfunc_end11:
	.cfi_endproc
	.section	__TEXT,__gcc_except_tab
	.p2align	2
GCC_except_table53:
Lexception11:
	.byte	255                     ## @LPStart Encoding = omit
	.byte	155                     ## @TType Encoding = indirect pcrel sdata4
	.uleb128 Lttbase1-Lttbaseref1
Lttbaseref1:
	.byte	1                       ## Call site Encoding = uleb128
	.uleb128 Lcst_end11-Lcst_begin11
Lcst_begin11:
	.uleb128 Lfunc_begin11-Lfunc_begin11 ## >> Call Site 1 <<
	.uleb128 Ltmp222-Lfunc_begin11  ##   Call between Lfunc_begin11 and Ltmp222
	.byte	0                       ##     has no landing pad
	.byte	0                       ##   On action: cleanup
	.uleb128 Ltmp222-Lfunc_begin11  ## >> Call Site 2 <<
	.uleb128 Ltmp223-Ltmp222        ##   Call between Ltmp222 and Ltmp223
	.uleb128 Ltmp224-Lfunc_begin11  ##     jumps to Ltmp224
	.byte	0                       ##   On action: cleanup
	.uleb128 Ltmp225-Lfunc_begin11  ## >> Call Site 3 <<
	.uleb128 Ltmp226-Ltmp225        ##   Call between Ltmp225 and Ltmp226
	.uleb128 Ltmp227-Lfunc_begin11  ##     jumps to Ltmp227
	.byte	0                       ##   On action: cleanup
	.uleb128 Ltmp228-Lfunc_begin11  ## >> Call Site 4 <<
	.uleb128 Ltmp229-Ltmp228        ##   Call between Ltmp228 and Ltmp229
	.uleb128 Ltmp230-Lfunc_begin11  ##     jumps to Ltmp230
	.byte	0                       ##   On action: cleanup
	.uleb128 Ltmp231-Lfunc_begin11  ## >> Call Site 5 <<
	.uleb128 Ltmp238-Ltmp231        ##   Call between Ltmp231 and Ltmp238
	.uleb128 Ltmp239-Lfunc_begin11  ##     jumps to Ltmp239
	.byte	0                       ##   On action: cleanup
	.uleb128 Ltmp240-Lfunc_begin11  ## >> Call Site 6 <<
	.uleb128 Ltmp241-Ltmp240        ##   Call between Ltmp240 and Ltmp241
	.uleb128 Ltmp242-Lfunc_begin11  ##     jumps to Ltmp242
	.byte	0                       ##   On action: cleanup
	.uleb128 Ltmp243-Lfunc_begin11  ## >> Call Site 7 <<
	.uleb128 Ltmp244-Ltmp243        ##   Call between Ltmp243 and Ltmp244
	.uleb128 Ltmp245-Lfunc_begin11  ##     jumps to Ltmp245
	.byte	0                       ##   On action: cleanup
	.uleb128 Ltmp246-Lfunc_begin11  ## >> Call Site 8 <<
	.uleb128 Ltmp247-Ltmp246        ##   Call between Ltmp246 and Ltmp247
	.uleb128 Ltmp248-Lfunc_begin11  ##     jumps to Ltmp248
	.byte	0                       ##   On action: cleanup
	.uleb128 Ltmp249-Lfunc_begin11  ## >> Call Site 9 <<
	.uleb128 Ltmp250-Ltmp249        ##   Call between Ltmp249 and Ltmp250
	.uleb128 Ltmp251-Lfunc_begin11  ##     jumps to Ltmp251
	.byte	0                       ##   On action: cleanup
	.uleb128 Ltmp252-Lfunc_begin11  ## >> Call Site 10 <<
	.uleb128 Ltmp261-Ltmp252        ##   Call between Ltmp252 and Ltmp261
	.uleb128 Ltmp340-Lfunc_begin11  ##     jumps to Ltmp340
	.byte	0                       ##   On action: cleanup
	.uleb128 Ltmp262-Lfunc_begin11  ## >> Call Site 11 <<
	.uleb128 Ltmp263-Ltmp262        ##   Call between Ltmp262 and Ltmp263
	.uleb128 Ltmp264-Lfunc_begin11  ##     jumps to Ltmp264
	.byte	3                       ##   On action: 2
	.uleb128 Ltmp265-Lfunc_begin11  ## >> Call Site 12 <<
	.uleb128 Ltmp284-Ltmp265        ##   Call between Ltmp265 and Ltmp284
	.uleb128 Ltmp285-Lfunc_begin11  ##     jumps to Ltmp285
	.byte	3                       ##   On action: 2
	.uleb128 Ltmp284-Lfunc_begin11  ## >> Call Site 13 <<
	.uleb128 Ltmp286-Ltmp284        ##   Call between Ltmp284 and Ltmp286
	.byte	0                       ##     has no landing pad
	.byte	0                       ##   On action: cleanup
	.uleb128 Ltmp286-Lfunc_begin11  ## >> Call Site 14 <<
	.uleb128 Ltmp287-Ltmp286        ##   Call between Ltmp286 and Ltmp287
	.uleb128 Ltmp294-Lfunc_begin11  ##     jumps to Ltmp294
	.byte	0                       ##   On action: cleanup
	.uleb128 Ltmp287-Lfunc_begin11  ## >> Call Site 15 <<
	.uleb128 Ltmp288-Ltmp287        ##   Call between Ltmp287 and Ltmp288
	.byte	0                       ##     has no landing pad
	.byte	0                       ##   On action: cleanup
	.uleb128 Ltmp288-Lfunc_begin11  ## >> Call Site 16 <<
	.uleb128 Ltmp293-Ltmp288        ##   Call between Ltmp288 and Ltmp293
	.uleb128 Ltmp294-Lfunc_begin11  ##     jumps to Ltmp294
	.byte	0                       ##   On action: cleanup
	.uleb128 Ltmp298-Lfunc_begin11  ## >> Call Site 17 <<
	.uleb128 Ltmp299-Ltmp298        ##   Call between Ltmp298 and Ltmp299
	.uleb128 Ltmp340-Lfunc_begin11  ##     jumps to Ltmp340
	.byte	0                       ##   On action: cleanup
	.uleb128 Ltmp267-Lfunc_begin11  ## >> Call Site 18 <<
	.uleb128 Ltmp268-Ltmp267        ##   Call between Ltmp267 and Ltmp268
	.uleb128 Ltmp285-Lfunc_begin11  ##     jumps to Ltmp285
	.byte	3                       ##   On action: 2
	.uleb128 Ltmp295-Lfunc_begin11  ## >> Call Site 19 <<
	.uleb128 Ltmp296-Ltmp295        ##   Call between Ltmp295 and Ltmp296
	.uleb128 Ltmp297-Lfunc_begin11  ##     jumps to Ltmp297
	.byte	5                       ##   On action: 3
	.uleb128 Ltmp300-Lfunc_begin11  ## >> Call Site 20 <<
	.uleb128 Ltmp307-Ltmp300        ##   Call between Ltmp300 and Ltmp307
	.uleb128 Ltmp340-Lfunc_begin11  ##     jumps to Ltmp340
	.byte	0                       ##   On action: cleanup
	.uleb128 Ltmp308-Lfunc_begin11  ## >> Call Site 21 <<
	.uleb128 Ltmp309-Ltmp308        ##   Call between Ltmp308 and Ltmp309
	.uleb128 Ltmp310-Lfunc_begin11  ##     jumps to Ltmp310
	.byte	0                       ##   On action: cleanup
	.uleb128 Ltmp311-Lfunc_begin11  ## >> Call Site 22 <<
	.uleb128 Ltmp312-Ltmp311        ##   Call between Ltmp311 and Ltmp312
	.uleb128 Ltmp313-Lfunc_begin11  ##     jumps to Ltmp313
	.byte	0                       ##   On action: cleanup
	.uleb128 Ltmp314-Lfunc_begin11  ## >> Call Site 23 <<
	.uleb128 Ltmp315-Ltmp314        ##   Call between Ltmp314 and Ltmp315
	.uleb128 Ltmp316-Lfunc_begin11  ##     jumps to Ltmp316
	.byte	0                       ##   On action: cleanup
	.uleb128 Ltmp317-Lfunc_begin11  ## >> Call Site 24 <<
	.uleb128 Ltmp318-Ltmp317        ##   Call between Ltmp317 and Ltmp318
	.uleb128 Ltmp319-Lfunc_begin11  ##     jumps to Ltmp319
	.byte	0                       ##   On action: cleanup
	.uleb128 Ltmp320-Lfunc_begin11  ## >> Call Site 25 <<
	.uleb128 Ltmp321-Ltmp320        ##   Call between Ltmp320 and Ltmp321
	.uleb128 Ltmp322-Lfunc_begin11  ##     jumps to Ltmp322
	.byte	0                       ##   On action: cleanup
	.uleb128 Ltmp323-Lfunc_begin11  ## >> Call Site 26 <<
	.uleb128 Ltmp326-Ltmp323        ##   Call between Ltmp323 and Ltmp326
	.uleb128 Ltmp333-Lfunc_begin11  ##     jumps to Ltmp333
	.byte	0                       ##   On action: cleanup
	.uleb128 Ltmp326-Lfunc_begin11  ## >> Call Site 27 <<
	.uleb128 Lfunc_end11-Ltmp326    ##   Call between Ltmp326 and Lfunc_end11
	.byte	0                       ##     has no landing pad
	.byte	0                       ##   On action: cleanup
Lcst_end11:
	.byte	0                       ## >> Action Record 1 <<
                                        ##   Cleanup
	.byte	0                       ##   No further actions
	.byte	1                       ## >> Action Record 2 <<
                                        ##   Catch TypeInfo 1
	.byte	125                     ##   Continue to action 1
	.byte	2                       ## >> Action Record 3 <<
                                        ##   Catch TypeInfo 2
	.byte	0                       ##   No further actions
	.p2align	2
                                        ## >> Catch TypeInfos <<
	.long	0                       ## TypeInfo 2
	.long	__ZTISt9exception@GOTPCREL+4 ## TypeInfo 1
Lttbase1:
	.p2align	2
                                        ## -- End function
	.section	__TEXT,__text,regular,pure_instructions
	.p2align	4, 0x90         ## -- Begin function _ZNSt3__1plIcNS_11char_traitsIcEENS_9allocatorIcEEEENS_12basic_stringIT_T0_T1_EERKS9_PKS6_
__ZNSt3__1plIcNS_11char_traitsIcEENS_9allocatorIcEEEENS_12basic_stringIT_T0_T1_EERKS9_PKS6_: ## @_ZNSt3__1plIcNS_11char_traitsIcEENS_9allocatorIcEEEENS_12basic_stringIT_T0_T1_EERKS9_PKS6_
Lfunc_begin12:
	.cfi_startproc
	.cfi_personality 155, ___gxx_personality_v0
	.cfi_lsda 16, Lexception12
## %bb.0:
	pushq	%rbp
	.cfi_def_cfa_offset 16
	.cfi_offset %rbp, -16
	movq	%rsp, %rbp
	.cfi_def_cfa_register %rbp
	subq	$96, %rsp
	movq	%rdi, %rax
	movq	%rdi, -8(%rbp)
	movq	%rsi, -16(%rbp)
	movq	%rdx, -24(%rbp)
	movb	$0, -25(%rbp)
	movq	-16(%rbp), %rcx
	movq	%rdi, -80(%rbp)         ## 8-byte Spill
	movq	%rcx, %rdi
	movq	%rax, -88(%rbp)         ## 8-byte Spill
	callq	__ZNKSt3__112basic_stringIcNS_11char_traitsIcEENS_9allocatorIcEEE13get_allocatorEv
	leaq	-32(%rbp), %rsi
	movq	-80(%rbp), %rdi         ## 8-byte Reload
	callq	__ZNSt3__112basic_stringIcNS_11char_traitsIcEENS_9allocatorIcEEEC1ERKS4_
	movq	-16(%rbp), %rdi
	callq	__ZNKSt3__112basic_stringIcNS_11char_traitsIcEENS_9allocatorIcEEE4sizeEv
	movq	%rax, -48(%rbp)
	movq	-24(%rbp), %rdi
	callq	__ZNSt3__111char_traitsIcE6lengthEPKc
	movq	%rax, -56(%rbp)
	movq	-16(%rbp), %rdi
	callq	__ZNKSt3__112basic_stringIcNS_11char_traitsIcEENS_9allocatorIcEEE4dataEv
	movq	-48(%rbp), %rcx
	movq	-56(%rbp), %rdx
	movq	%rcx, %rsi
	addq	%rdx, %rsi
Ltmp341:
	movq	-80(%rbp), %rdi         ## 8-byte Reload
	movq	%rsi, -96(%rbp)         ## 8-byte Spill
	movq	%rax, %rsi
	movq	%rcx, %rdx
	movq	-96(%rbp), %rcx         ## 8-byte Reload
	callq	__ZNSt3__112basic_stringIcNS_11char_traitsIcEENS_9allocatorIcEEE6__initEPKcmm
Ltmp342:
	jmp	LBB54_1
LBB54_1:
	movq	-24(%rbp), %rsi
	movq	-56(%rbp), %rdx
Ltmp343:
	movq	-80(%rbp), %rdi         ## 8-byte Reload
	callq	__ZNSt3__112basic_stringIcNS_11char_traitsIcEENS_9allocatorIcEEE6appendEPKcm
Ltmp344:
	jmp	LBB54_2
LBB54_2:
	movb	$1, -25(%rbp)
	testb	$1, -25(%rbp)
	jne	LBB54_5
	jmp	LBB54_4
LBB54_3:
Ltmp345:
                                        ## kill: def $edx killed $edx killed $rdx
	movq	%rax, -64(%rbp)
	movl	%edx, -68(%rbp)
	movq	-80(%rbp), %rdi         ## 8-byte Reload
	callq	__ZNSt3__112basic_stringIcNS_11char_traitsIcEENS_9allocatorIcEEED1Ev
	jmp	LBB54_6
LBB54_4:
	movq	-80(%rbp), %rdi         ## 8-byte Reload
	callq	__ZNSt3__112basic_stringIcNS_11char_traitsIcEENS_9allocatorIcEEED1Ev
LBB54_5:
	movq	-88(%rbp), %rax         ## 8-byte Reload
	addq	$96, %rsp
	popq	%rbp
	retq
LBB54_6:
	movq	-64(%rbp), %rdi
	callq	__Unwind_Resume
	ud2
Lfunc_end12:
	.cfi_endproc
	.section	__TEXT,__gcc_except_tab
	.p2align	2
GCC_except_table54:
Lexception12:
	.byte	255                     ## @LPStart Encoding = omit
	.byte	255                     ## @TType Encoding = omit
	.byte	1                       ## Call site Encoding = uleb128
	.uleb128 Lcst_end12-Lcst_begin12
Lcst_begin12:
	.uleb128 Ltmp341-Lfunc_begin12  ## >> Call Site 1 <<
	.uleb128 Ltmp344-Ltmp341        ##   Call between Ltmp341 and Ltmp344
	.uleb128 Ltmp345-Lfunc_begin12  ##     jumps to Ltmp345
	.byte	0                       ##   On action: cleanup
	.uleb128 Ltmp344-Lfunc_begin12  ## >> Call Site 2 <<
	.uleb128 Lfunc_end12-Ltmp344    ##   Call between Ltmp344 and Lfunc_end12
	.byte	0                       ##     has no landing pad
	.byte	0                       ##   On action: cleanup
Lcst_end12:
	.p2align	2
                                        ## -- End function
	.section	__TEXT,__text,regular,pure_instructions
	.p2align	4, 0x90         ## -- Begin function _ZNSt3__14__fs10filesystem4pathC1EONS_12basic_stringIcNS_11char_traitsIcEENS_9allocatorIcEEEENS2_6formatE
__ZNSt3__14__fs10filesystem4pathC1EONS_12basic_stringIcNS_11char_traitsIcEENS_9allocatorIcEEEENS2_6formatE: ## @_ZNSt3__14__fs10filesystem4pathC1EONS_12basic_stringIcNS_11char_traitsIcEENS_9allocatorIcEEEENS2_6formatE
	.cfi_startproc
## %bb.0:
	pushq	%rbp
	.cfi_def_cfa_offset 16
	.cfi_offset %rbp, -16
	movq	%rsp, %rbp
	.cfi_def_cfa_register %rbp
	subq	$32, %rsp
                                        ## kill: def $dl killed $dl killed $edx
	movq	%rdi, -8(%rbp)
	movq	%rsi, -16(%rbp)
	movb	%dl, -17(%rbp)
	movq	-8(%rbp), %rdi
	movq	-16(%rbp), %rsi
	movzbl	-17(%rbp), %edx
	callq	__ZNSt3__14__fs10filesystem4pathC2EONS_12basic_stringIcNS_11char_traitsIcEENS_9allocatorIcEEEENS2_6formatE
	addq	$32, %rsp
	popq	%rbp
	retq
	.cfi_endproc
                                        ## -- End function
	.p2align	4, 0x90         ## -- Begin function _ZNSt3__1plIcNS_11char_traitsIcEENS_9allocatorIcEEEENS_12basic_stringIT_T0_T1_EEOS9_PKS6_
__ZNSt3__1plIcNS_11char_traitsIcEENS_9allocatorIcEEEENS_12basic_stringIT_T0_T1_EEOS9_PKS6_: ## @_ZNSt3__1plIcNS_11char_traitsIcEENS_9allocatorIcEEEENS_12basic_stringIT_T0_T1_EEOS9_PKS6_
	.cfi_startproc
## %bb.0:
	pushq	%rbp
	.cfi_def_cfa_offset 16
	.cfi_offset %rbp, -16
	movq	%rsp, %rbp
	.cfi_def_cfa_register %rbp
	subq	$48, %rsp
	movq	%rdi, %rax
	movq	%rdi, %rcx
	movq	%rcx, -8(%rbp)
	movq	%rsi, -16(%rbp)
	movq	%rdx, -24(%rbp)
	movq	-16(%rbp), %rcx
	movq	-24(%rbp), %rsi
	movq	%rdi, -32(%rbp)         ## 8-byte Spill
	movq	%rcx, %rdi
	movq	%rax, -40(%rbp)         ## 8-byte Spill
	callq	__ZNSt3__112basic_stringIcNS_11char_traitsIcEENS_9allocatorIcEEE6appendEPKc
	movq	%rax, %rdi
	callq	__ZNSt3__1L4moveIRNS_12basic_stringIcNS_11char_traitsIcEENS_9allocatorIcEEEEEEONS_16remove_referenceIT_E4typeEOS9_
	movq	-32(%rbp), %rdi         ## 8-byte Reload
	movq	%rax, %rsi
	callq	__ZNSt3__112basic_stringIcNS_11char_traitsIcEENS_9allocatorIcEEEC1EOS5_
	movq	-40(%rbp), %rax         ## 8-byte Reload
	addq	$48, %rsp
	popq	%rbp
	retq
	.cfi_endproc
                                        ## -- End function
	.p2align	4, 0x90         ## -- Begin function _ZNSt3__1plIcNS_11char_traitsIcEENS_9allocatorIcEEEENS_12basic_stringIT_T0_T1_EEOS9_RKS9_
__ZNSt3__1plIcNS_11char_traitsIcEENS_9allocatorIcEEEENS_12basic_stringIT_T0_T1_EEOS9_RKS9_: ## @_ZNSt3__1plIcNS_11char_traitsIcEENS_9allocatorIcEEEENS_12basic_stringIT_T0_T1_EEOS9_RKS9_
	.cfi_startproc
## %bb.0:
	pushq	%rbp
	.cfi_def_cfa_offset 16
	.cfi_offset %rbp, -16
	movq	%rsp, %rbp
	.cfi_def_cfa_register %rbp
	subq	$48, %rsp
	movq	%rdi, %rax
	movq	%rdi, %rcx
	movq	%rcx, -8(%rbp)
	movq	%rsi, -16(%rbp)
	movq	%rdx, -24(%rbp)
	movq	-16(%rbp), %rcx
	movq	-24(%rbp), %rsi
	movq	%rdi, -32(%rbp)         ## 8-byte Spill
	movq	%rcx, %rdi
	movq	%rax, -40(%rbp)         ## 8-byte Spill
	callq	__ZNSt3__112basic_stringIcNS_11char_traitsIcEENS_9allocatorIcEEE6appendERKS5_
	movq	%rax, %rdi
	callq	__ZNSt3__1L4moveIRNS_12basic_stringIcNS_11char_traitsIcEENS_9allocatorIcEEEEEEONS_16remove_referenceIT_E4typeEOS9_
	movq	-32(%rbp), %rdi         ## 8-byte Reload
	movq	%rax, %rsi
	callq	__ZNSt3__112basic_stringIcNS_11char_traitsIcEENS_9allocatorIcEEEC1EOS5_
	movq	-40(%rbp), %rax         ## 8-byte Reload
	addq	$48, %rsp
	popq	%rbp
	retq
	.cfi_endproc
                                        ## -- End function
	.p2align	4, 0x90         ## -- Begin function _ZNSt3__1plIcNS_11char_traitsIcEENS_9allocatorIcEEEENS_12basic_stringIT_T0_T1_EEPKS6_OS9_
__ZNSt3__1plIcNS_11char_traitsIcEENS_9allocatorIcEEEENS_12basic_stringIT_T0_T1_EEPKS6_OS9_: ## @_ZNSt3__1plIcNS_11char_traitsIcEENS_9allocatorIcEEEENS_12basic_stringIT_T0_T1_EEPKS6_OS9_
	.cfi_startproc
## %bb.0:
	pushq	%rbp
	.cfi_def_cfa_offset 16
	.cfi_offset %rbp, -16
	movq	%rsp, %rbp
	.cfi_def_cfa_register %rbp
	subq	$48, %rsp
	movq	%rdi, %rax
	xorl	%ecx, %ecx
	movl	%ecx, %r8d
	movq	%rdi, %r9
	movq	%r9, -8(%rbp)
	movq	%rsi, -16(%rbp)
	movq	%rdx, -24(%rbp)
	movq	-24(%rbp), %rdx
	movq	-16(%rbp), %rsi
	movq	%rdi, -32(%rbp)         ## 8-byte Spill
	movq	%rdx, %rdi
	movq	%rsi, -40(%rbp)         ## 8-byte Spill
	movq	%r8, %rsi
	movq	-40(%rbp), %rdx         ## 8-byte Reload
	movq	%rax, -48(%rbp)         ## 8-byte Spill
	callq	__ZNSt3__112basic_stringIcNS_11char_traitsIcEENS_9allocatorIcEEE6insertEmPKc
	movq	%rax, %rdi
	callq	__ZNSt3__1L4moveIRNS_12basic_stringIcNS_11char_traitsIcEENS_9allocatorIcEEEEEEONS_16remove_referenceIT_E4typeEOS9_
	movq	-32(%rbp), %rdi         ## 8-byte Reload
	movq	%rax, %rsi
	callq	__ZNSt3__112basic_stringIcNS_11char_traitsIcEENS_9allocatorIcEEEC1EOS5_
	movq	-48(%rbp), %rax         ## 8-byte Reload
	addq	$48, %rsp
	popq	%rbp
	retq
	.cfi_endproc
                                        ## -- End function
	.p2align	4, 0x90         ## -- Begin function _ZNKSt3__14__fs10filesystem4path6stringEv
__ZNKSt3__14__fs10filesystem4path6stringEv: ## @_ZNKSt3__14__fs10filesystem4path6stringEv
	.cfi_startproc
## %bb.0:
	pushq	%rbp
	.cfi_def_cfa_offset 16
	.cfi_offset %rbp, -16
	movq	%rsp, %rbp
	.cfi_def_cfa_register %rbp
	subq	$32, %rsp
	movq	%rdi, %rax
	movq	%rdi, %rcx
	movq	%rcx, -8(%rbp)
	movq	%rsi, -16(%rbp)
	movq	-16(%rbp), %rsi
	movq	%rax, -24(%rbp)         ## 8-byte Spill
	callq	__ZNSt3__112basic_stringIcNS_11char_traitsIcEENS_9allocatorIcEEEC1ERKS5_
	movq	-24(%rbp), %rax         ## 8-byte Reload
	addq	$32, %rsp
	popq	%rbp
	retq
	.cfi_endproc
                                        ## -- End function
	.p2align	4, 0x90         ## -- Begin function _ZNKSt3__112basic_stringIcNS_11char_traitsIcEENS_9allocatorIcEEE5c_strEv
__ZNKSt3__112basic_stringIcNS_11char_traitsIcEENS_9allocatorIcEEE5c_strEv: ## @_ZNKSt3__112basic_stringIcNS_11char_traitsIcEENS_9allocatorIcEEE5c_strEv
	.cfi_startproc
## %bb.0:
	pushq	%rbp
	.cfi_def_cfa_offset 16
	.cfi_offset %rbp, -16
	movq	%rsp, %rbp
	.cfi_def_cfa_register %rbp
	subq	$16, %rsp
	movq	%rdi, -8(%rbp)
	movq	-8(%rbp), %rdi
	callq	__ZNKSt3__112basic_stringIcNS_11char_traitsIcEENS_9allocatorIcEEE4dataEv
	addq	$16, %rsp
	popq	%rbp
	retq
	.cfi_endproc
                                        ## -- End function
	.globl	__ZN6SHA2569hash_fileERKNSt3__14__fs10filesystem4pathE ## -- Begin function _ZN6SHA2569hash_fileERKNSt3__14__fs10filesystem4pathE
	.weak_definition	__ZN6SHA2569hash_fileERKNSt3__14__fs10filesystem4pathE
	.p2align	4, 0x90
__ZN6SHA2569hash_fileERKNSt3__14__fs10filesystem4pathE: ## @_ZN6SHA2569hash_fileERKNSt3__14__fs10filesystem4pathE
Lfunc_begin13:
	.cfi_startproc
	.cfi_personality 155, ___gxx_personality_v0
	.cfi_lsda 16, Lexception13
## %bb.0:
	pushq	%rbp
	.cfi_def_cfa_offset 16
	.cfi_offset %rbp, -16
	movq	%rsp, %rbp
	.cfi_def_cfa_register %rbp
	subq	$1216, %rsp             ## imm = 0x4C0
	movq	%rdi, %rax
	movq	___stack_chk_guard@GOTPCREL(%rip), %rcx
	movq	(%rcx), %rcx
	movq	%rcx, -8(%rbp)
	movq	%rdi, -656(%rbp)
	movq	%rsi, -664(%rbp)
	movq	-664(%rbp), %rsi
	leaq	-584(%rbp), %rcx
	movl	$4, %edx
	movq	%rdi, -1104(%rbp)       ## 8-byte Spill
	movq	%rcx, %rdi
	movq	%rax, -1112(%rbp)       ## 8-byte Spill
	callq	__ZNSt3__114basic_ifstreamIcNS_11char_traitsIcEEEC1ERKNS_4__fs10filesystem4pathEj
	movq	-584(%rbp), %rax
	movq	-24(%rax), %rax
	leaq	-584(%rbp,%rax), %rdi
Ltmp346:
	callq	__ZNKSt3__19basic_iosIcNS_11char_traitsIcEEEntEv
Ltmp347:
	movb	%al, -1113(%rbp)        ## 1-byte Spill
	jmp	LBB61_1
LBB61_1:
	movb	-1113(%rbp), %al        ## 1-byte Reload
	testb	$1, %al
	jne	LBB61_2
	jmp	LBB61_14
LBB61_2:
	movl	$16, %edi
	callq	___cxa_allocate_exception
	movq	%rax, %rcx
	movb	$1, -729(%rbp)
	movq	-664(%rbp), %rsi
Ltmp376:
	leaq	-728(%rbp), %rdi
	movq	%rcx, -1128(%rbp)       ## 8-byte Spill
	movq	%rax, -1136(%rbp)       ## 8-byte Spill
	callq	__ZNKSt3__14__fs10filesystem4path6stringEv
Ltmp377:
	jmp	LBB61_3
LBB61_3:
Ltmp379:
	leaq	L_.str.183(%rip), %rsi
	leaq	-704(%rbp), %rdi
	leaq	-728(%rbp), %rdx
	callq	__ZNSt3__1plIcNS_11char_traitsIcEENS_9allocatorIcEEEENS_12basic_stringIT_T0_T1_EEPKS6_OS9_
Ltmp380:
	jmp	LBB61_4
LBB61_4:
Ltmp382:
	leaq	-704(%rbp), %rsi
	movq	-1136(%rbp), %rdi       ## 8-byte Reload
	callq	__ZNSt13runtime_errorC1ERKNSt3__112basic_stringIcNS0_11char_traitsIcEENS0_9allocatorIcEEEE
Ltmp383:
	jmp	LBB61_5
LBB61_5:
	movb	$0, -729(%rbp)
Ltmp384:
	movq	__ZTISt13runtime_error@GOTPCREL(%rip), %rsi
	movq	__ZNSt13runtime_errorD1Ev@GOTPCREL(%rip), %rdx
	movq	-1128(%rbp), %rdi       ## 8-byte Reload
	callq	___cxa_throw
Ltmp385:
	jmp	LBB61_46
LBB61_6:
Ltmp360:
                                        ## kill: def $edx killed $edx killed $rdx
	movq	%rax, -672(%rbp)
	movl	%edx, -676(%rbp)
	jmp	LBB61_44
LBB61_7:
Ltmp378:
                                        ## kill: def $edx killed $edx killed $rdx
	movq	%rax, -672(%rbp)
	movl	%edx, -676(%rbp)
	jmp	LBB61_11
LBB61_8:
Ltmp381:
                                        ## kill: def $edx killed $edx killed $rdx
	movq	%rax, -672(%rbp)
	movl	%edx, -676(%rbp)
	jmp	LBB61_10
LBB61_9:
Ltmp386:
                                        ## kill: def $edx killed $edx killed $rdx
	movq	%rax, -672(%rbp)
	movl	%edx, -676(%rbp)
	leaq	-704(%rbp), %rdi
	callq	__ZNSt3__112basic_stringIcNS_11char_traitsIcEENS_9allocatorIcEEED1Ev
LBB61_10:
	leaq	-728(%rbp), %rdi
	callq	__ZNSt3__112basic_stringIcNS_11char_traitsIcEENS_9allocatorIcEEED1Ev
LBB61_11:
	testb	$1, -729(%rbp)
	jne	LBB61_12
	jmp	LBB61_13
LBB61_12:
	movq	-1128(%rbp), %rdi       ## 8-byte Reload
	callq	___cxa_free_exception
LBB61_13:
	jmp	LBB61_44
LBB61_14:
	leaq	-768(%rbp), %rdi
	callq	__ZN6SHA256C1Ev
	xorl	%esi, %esi
	leaq	-648(%rbp), %rax
	movq	%rax, %rdi
	movl	$64, %edx
	callq	_memset
	movq	$0, -776(%rbp)
LBB61_15:                               ## =>This Inner Loop Header: Depth=1
	movq	-584(%rbp), %rax
	movq	-24(%rax), %rax
	leaq	-584(%rbp,%rax), %rdi
Ltmp348:
	callq	__ZNKSt3__19basic_iosIcNS_11char_traitsIcEEEcvbEv
Ltmp349:
	movb	%al, -1137(%rbp)        ## 1-byte Spill
	jmp	LBB61_16
LBB61_16:                               ##   in Loop: Header=BB61_15 Depth=1
	movb	-1137(%rbp), %al        ## 1-byte Reload
	testb	$1, %al
	jne	LBB61_17
	jmp	LBB61_29
LBB61_17:                               ##   in Loop: Header=BB61_15 Depth=1
	leaq	-648(%rbp), %rdi
	callq	__ZNSt3__15arrayIhLm64EE4dataEv
Ltmp350:
	leaq	-584(%rbp), %rdi
	movl	$64, %edx
	movq	%rax, %rsi
	callq	__ZNSt3__113basic_istreamIcNS_11char_traitsIcEEE4readEPcl
Ltmp351:
	jmp	LBB61_18
LBB61_18:                               ##   in Loop: Header=BB61_15 Depth=1
Ltmp352:
	leaq	-584(%rbp), %rdi
	callq	__ZNKSt3__113basic_istreamIcNS_11char_traitsIcEEE6gcountEv
Ltmp353:
	movq	%rax, -1152(%rbp)       ## 8-byte Spill
	jmp	LBB61_19
LBB61_19:                               ##   in Loop: Header=BB61_15 Depth=1
	movq	-1152(%rbp), %rax       ## 8-byte Reload
	movq	%rax, -784(%rbp)
	cmpq	$0, -784(%rbp)
	jne	LBB61_21
## %bb.20:
	jmp	LBB61_29
LBB61_21:                               ##   in Loop: Header=BB61_15 Depth=1
	movq	-784(%rbp), %rax
	addq	-776(%rbp), %rax
	movq	%rax, -776(%rbp)
	cmpq	$64, -784(%rbp)
	jae	LBB61_27
## %bb.22:
	movq	-784(%rbp), %rax
	movq	%rax, %rcx
	addq	$1, %rcx
	movq	%rcx, -784(%rbp)
	leaq	-648(%rbp), %rdi
	movq	%rax, %rsi
	callq	__ZNSt3__15arrayIhLm64EEixEm
	movb	$-128, (%rax)
LBB61_23:                               ## =>This Inner Loop Header: Depth=1
	cmpq	$56, -784(%rbp)
	jae	LBB61_25
## %bb.24:                              ##   in Loop: Header=BB61_23 Depth=1
	movq	-784(%rbp), %rax
	movq	%rax, %rcx
	addq	$1, %rcx
	movq	%rcx, -784(%rbp)
	leaq	-648(%rbp), %rdi
	movq	%rax, %rsi
	callq	__ZNSt3__15arrayIhLm64EEixEm
	movb	$0, (%rax)
	jmp	LBB61_23
LBB61_25:
	movq	-776(%rbp), %rax
	shlq	$3, %rax
	movq	%rax, -792(%rbp)
	movb	-792(%rbp), %cl
	leaq	-648(%rbp), %rax
	movl	$63, %esi
	movq	%rax, %rdi
	movb	%cl, -1153(%rbp)        ## 1-byte Spill
	movq	%rax, -1168(%rbp)       ## 8-byte Spill
	callq	__ZNSt3__15arrayIhLm64EEixEm
	movb	-1153(%rbp), %cl        ## 1-byte Reload
	movb	%cl, (%rax)
	movb	-791(%rbp), %cl
	movl	$62, %esi
	movq	-1168(%rbp), %rdi       ## 8-byte Reload
	movb	%cl, -1169(%rbp)        ## 1-byte Spill
	callq	__ZNSt3__15arrayIhLm64EEixEm
	movb	-1169(%rbp), %cl        ## 1-byte Reload
	movb	%cl, (%rax)
	movb	-790(%rbp), %cl
	movl	$61, %esi
	movq	-1168(%rbp), %rdi       ## 8-byte Reload
	movb	%cl, -1170(%rbp)        ## 1-byte Spill
	callq	__ZNSt3__15arrayIhLm64EEixEm
	movb	-1170(%rbp), %cl        ## 1-byte Reload
	movb	%cl, (%rax)
	movb	-789(%rbp), %cl
	movl	$60, %esi
	movq	-1168(%rbp), %rdi       ## 8-byte Reload
	movb	%cl, -1171(%rbp)        ## 1-byte Spill
	callq	__ZNSt3__15arrayIhLm64EEixEm
	movb	-1171(%rbp), %cl        ## 1-byte Reload
	movb	%cl, (%rax)
	movb	-788(%rbp), %cl
	movl	$59, %esi
	movq	-1168(%rbp), %rdi       ## 8-byte Reload
	movb	%cl, -1172(%rbp)        ## 1-byte Spill
	callq	__ZNSt3__15arrayIhLm64EEixEm
	movb	-1172(%rbp), %cl        ## 1-byte Reload
	movb	%cl, (%rax)
	movb	-787(%rbp), %cl
	movl	$58, %esi
	movq	-1168(%rbp), %rdi       ## 8-byte Reload
	movb	%cl, -1173(%rbp)        ## 1-byte Spill
	callq	__ZNSt3__15arrayIhLm64EEixEm
	movb	-1173(%rbp), %cl        ## 1-byte Reload
	movb	%cl, (%rax)
	movb	-786(%rbp), %cl
	movl	$57, %esi
	movq	-1168(%rbp), %rdi       ## 8-byte Reload
	movb	%cl, -1174(%rbp)        ## 1-byte Spill
	callq	__ZNSt3__15arrayIhLm64EEixEm
	movb	-1174(%rbp), %cl        ## 1-byte Reload
	movb	%cl, (%rax)
	movb	-785(%rbp), %cl
	movl	$56, %esi
	movq	-1168(%rbp), %rdi       ## 8-byte Reload
	movb	%cl, -1175(%rbp)        ## 1-byte Spill
	callq	__ZNSt3__15arrayIhLm64EEixEm
	movb	-1175(%rbp), %cl        ## 1-byte Reload
	movb	%cl, (%rax)
	movq	-1168(%rbp), %rdi       ## 8-byte Reload
	callq	__ZNSt3__15arrayIhLm64EE4dataEv
Ltmp356:
	leaq	-768(%rbp), %rdi
	movq	%rax, %rsi
	callq	__ZN6SHA2569transformEPKh
Ltmp357:
	jmp	LBB61_26
LBB61_26:
	jmp	LBB61_29
LBB61_27:                               ##   in Loop: Header=BB61_15 Depth=1
	leaq	-648(%rbp), %rdi
	callq	__ZNSt3__15arrayIhLm64EE4dataEv
Ltmp354:
	leaq	-768(%rbp), %rdi
	movq	%rax, %rsi
	callq	__ZN6SHA2569transformEPKh
Ltmp355:
	jmp	LBB61_28
LBB61_28:                               ##   in Loop: Header=BB61_15 Depth=1
	jmp	LBB61_15
LBB61_29:
Ltmp358:
	leaq	-1056(%rbp), %rdi
	movl	$16, %esi
	callq	__ZNSt3__119basic_ostringstreamIcNS_11char_traitsIcEENS_9allocatorIcEEEC1Ej
Ltmp359:
	jmp	LBB61_30
LBB61_30:
Ltmp361:
	leaq	__ZNSt3__1L3hexERNS_8ios_baseE(%rip), %rsi
	leaq	-1056(%rbp), %rdi
	callq	__ZNSt3__113basic_ostreamIcNS_11char_traitsIcEEElsEPFRNS_8ios_baseES5_E
Ltmp362:
	movq	%rax, -1184(%rbp)       ## 8-byte Spill
	jmp	LBB61_31
LBB61_31:
Ltmp363:
	movl	$48, %edi
	callq	__ZNSt3__1L7setfillIcEENS_8__iom_t4IT_EES2_
Ltmp364:
	movb	%al, -1185(%rbp)        ## 1-byte Spill
	jmp	LBB61_32
LBB61_32:
	movb	-1185(%rbp), %al        ## 1-byte Reload
	movb	%al, -1064(%rbp)
Ltmp365:
	leaq	-1064(%rbp), %rsi
	movq	-1184(%rbp), %rdi       ## 8-byte Reload
	callq	__ZNSt3__1lsINS_11char_traitsIcEEEERNS_13basic_ostreamIcT_EES6_RKNS_8__iom_t4IcEE
Ltmp366:
	jmp	LBB61_33
LBB61_33:
	leaq	-768(%rbp), %rax
	movq	%rax, -1072(%rbp)
	movq	-1072(%rbp), %rdi
	callq	__ZNSt3__15arrayIjLm8EE5beginEv
	movq	%rax, -1080(%rbp)
	movq	-1072(%rbp), %rdi
	callq	__ZNSt3__15arrayIjLm8EE3endEv
	movq	%rax, -1088(%rbp)
LBB61_34:                               ## =>This Inner Loop Header: Depth=1
	movq	-1080(%rbp), %rax
	cmpq	-1088(%rbp), %rax
	je	LBB61_41
## %bb.35:                              ##   in Loop: Header=BB61_34 Depth=1
	movq	-1080(%rbp), %rax
	movl	(%rax), %ecx
	movl	%ecx, -1092(%rbp)
	leaq	-1056(%rbp), %rdi
Ltmp369:
	movl	$8, %ecx
	movq	%rdi, -1200(%rbp)       ## 8-byte Spill
	movl	%ecx, %edi
	callq	__ZNSt3__1L4setwEi
Ltmp370:
	movl	%eax, -1204(%rbp)       ## 4-byte Spill
	jmp	LBB61_36
LBB61_36:                               ##   in Loop: Header=BB61_34 Depth=1
	movl	-1204(%rbp), %eax       ## 4-byte Reload
	movl	%eax, -1096(%rbp)
Ltmp371:
	leaq	-1096(%rbp), %rsi
	movq	-1200(%rbp), %rdi       ## 8-byte Reload
	callq	__ZNSt3__1lsIcNS_11char_traitsIcEEEERNS_13basic_ostreamIT_T0_EES7_RKNS_8__iom_t6E
Ltmp372:
	movq	%rax, -1216(%rbp)       ## 8-byte Spill
	jmp	LBB61_37
LBB61_37:                               ##   in Loop: Header=BB61_34 Depth=1
	movl	-1092(%rbp), %esi
Ltmp373:
	movq	-1216(%rbp), %rdi       ## 8-byte Reload
	callq	__ZNSt3__113basic_ostreamIcNS_11char_traitsIcEEElsEj
Ltmp374:
	jmp	LBB61_38
LBB61_38:                               ##   in Loop: Header=BB61_34 Depth=1
	jmp	LBB61_39
LBB61_39:                               ##   in Loop: Header=BB61_34 Depth=1
	movq	-1080(%rbp), %rax
	addq	$4, %rax
	movq	%rax, -1080(%rbp)
	jmp	LBB61_34
LBB61_40:
Ltmp375:
                                        ## kill: def $edx killed $edx killed $rdx
	movq	%rax, -672(%rbp)
	movl	%edx, -676(%rbp)
	leaq	-1056(%rbp), %rdi
	callq	__ZNSt3__119basic_ostringstreamIcNS_11char_traitsIcEENS_9allocatorIcEEED1Ev
	jmp	LBB61_44
LBB61_41:
Ltmp367:
	leaq	-1056(%rbp), %rsi
	movq	-1104(%rbp), %rdi       ## 8-byte Reload
	callq	__ZNKSt3__119basic_ostringstreamIcNS_11char_traitsIcEENS_9allocatorIcEEE3strEv
Ltmp368:
	jmp	LBB61_42
LBB61_42:
	leaq	-1056(%rbp), %rdi
	callq	__ZNSt3__119basic_ostringstreamIcNS_11char_traitsIcEENS_9allocatorIcEEED1Ev
	leaq	-584(%rbp), %rdi
	callq	__ZNSt3__114basic_ifstreamIcNS_11char_traitsIcEEED1Ev
	movq	___stack_chk_guard@GOTPCREL(%rip), %rax
	movq	(%rax), %rax
	movq	-8(%rbp), %rcx
	cmpq	%rcx, %rax
	jne	LBB61_47
## %bb.43:
	movq	-1112(%rbp), %rax       ## 8-byte Reload
	addq	$1216, %rsp             ## imm = 0x4C0
	popq	%rbp
	retq
LBB61_44:
	leaq	-584(%rbp), %rdi
	callq	__ZNSt3__114basic_ifstreamIcNS_11char_traitsIcEEED1Ev
## %bb.45:
	movq	-672(%rbp), %rdi
	callq	__Unwind_Resume
	ud2
LBB61_46:
	ud2
LBB61_47:
	callq	___stack_chk_fail
	ud2
Lfunc_end13:
	.cfi_endproc
	.section	__TEXT,__gcc_except_tab
	.p2align	2
GCC_except_table61:
Lexception13:
	.byte	255                     ## @LPStart Encoding = omit
	.byte	255                     ## @TType Encoding = omit
	.byte	1                       ## Call site Encoding = uleb128
	.uleb128 Lcst_end13-Lcst_begin13
Lcst_begin13:
	.uleb128 Lfunc_begin13-Lfunc_begin13 ## >> Call Site 1 <<
	.uleb128 Ltmp346-Lfunc_begin13  ##   Call between Lfunc_begin13 and Ltmp346
	.byte	0                       ##     has no landing pad
	.byte	0                       ##   On action: cleanup
	.uleb128 Ltmp346-Lfunc_begin13  ## >> Call Site 2 <<
	.uleb128 Ltmp347-Ltmp346        ##   Call between Ltmp346 and Ltmp347
	.uleb128 Ltmp360-Lfunc_begin13  ##     jumps to Ltmp360
	.byte	0                       ##   On action: cleanup
	.uleb128 Ltmp347-Lfunc_begin13  ## >> Call Site 3 <<
	.uleb128 Ltmp376-Ltmp347        ##   Call between Ltmp347 and Ltmp376
	.byte	0                       ##     has no landing pad
	.byte	0                       ##   On action: cleanup
	.uleb128 Ltmp376-Lfunc_begin13  ## >> Call Site 4 <<
	.uleb128 Ltmp377-Ltmp376        ##   Call between Ltmp376 and Ltmp377
	.uleb128 Ltmp378-Lfunc_begin13  ##     jumps to Ltmp378
	.byte	0                       ##   On action: cleanup
	.uleb128 Ltmp379-Lfunc_begin13  ## >> Call Site 5 <<
	.uleb128 Ltmp380-Ltmp379        ##   Call between Ltmp379 and Ltmp380
	.uleb128 Ltmp381-Lfunc_begin13  ##     jumps to Ltmp381
	.byte	0                       ##   On action: cleanup
	.uleb128 Ltmp382-Lfunc_begin13  ## >> Call Site 6 <<
	.uleb128 Ltmp385-Ltmp382        ##   Call between Ltmp382 and Ltmp385
	.uleb128 Ltmp386-Lfunc_begin13  ##     jumps to Ltmp386
	.byte	0                       ##   On action: cleanup
	.uleb128 Ltmp385-Lfunc_begin13  ## >> Call Site 7 <<
	.uleb128 Ltmp348-Ltmp385        ##   Call between Ltmp385 and Ltmp348
	.byte	0                       ##     has no landing pad
	.byte	0                       ##   On action: cleanup
	.uleb128 Ltmp348-Lfunc_begin13  ## >> Call Site 8 <<
	.uleb128 Ltmp359-Ltmp348        ##   Call between Ltmp348 and Ltmp359
	.uleb128 Ltmp360-Lfunc_begin13  ##     jumps to Ltmp360
	.byte	0                       ##   On action: cleanup
	.uleb128 Ltmp361-Lfunc_begin13  ## >> Call Site 9 <<
	.uleb128 Ltmp368-Ltmp361        ##   Call between Ltmp361 and Ltmp368
	.uleb128 Ltmp375-Lfunc_begin13  ##     jumps to Ltmp375
	.byte	0                       ##   On action: cleanup
	.uleb128 Ltmp368-Lfunc_begin13  ## >> Call Site 10 <<
	.uleb128 Lfunc_end13-Ltmp368    ##   Call between Ltmp368 and Lfunc_end13
	.byte	0                       ##     has no landing pad
	.byte	0                       ##   On action: cleanup
Lcst_end13:
	.p2align	2
                                        ## -- End function
	.section	__TEXT,__text,regular,pure_instructions
	.p2align	4, 0x90         ## -- Begin function _ZNSt3__1L9transformINS_11__wrap_iterIPcEES3_PFiiEEET0_T_S7_S6_T1_
__ZNSt3__1L9transformINS_11__wrap_iterIPcEES3_PFiiEEET0_T_S7_S6_T1_: ## @_ZNSt3__1L9transformINS_11__wrap_iterIPcEES3_PFiiEEET0_T_S7_S6_T1_
	.cfi_startproc
## %bb.0:
	pushq	%rbp
	.cfi_def_cfa_offset 16
	.cfi_offset %rbp, -16
	movq	%rsp, %rbp
	.cfi_def_cfa_register %rbp
	subq	$64, %rsp
	movq	%rdi, -16(%rbp)
	movq	%rsi, -24(%rbp)
	movq	%rdx, -32(%rbp)
	movq	%rcx, -40(%rbp)
LBB62_1:                                ## =>This Inner Loop Header: Depth=1
	leaq	-16(%rbp), %rdi
	leaq	-24(%rbp), %rsi
	callq	__ZNSt3__1neIPcEEbRKNS_11__wrap_iterIT_EES6_
	testb	$1, %al
	jne	LBB62_2
	jmp	LBB62_4
LBB62_2:                                ##   in Loop: Header=BB62_1 Depth=1
	movq	-40(%rbp), %rax
	leaq	-16(%rbp), %rdi
	movq	%rax, -48(%rbp)         ## 8-byte Spill
	callq	__ZNKSt3__111__wrap_iterIPcEdeEv
	movsbl	(%rax), %edi
	movq	-48(%rbp), %rax         ## 8-byte Reload
	callq	*%rax
                                        ## kill: def $al killed $al killed $eax
	leaq	-32(%rbp), %rdi
	movb	%al, -49(%rbp)          ## 1-byte Spill
	callq	__ZNKSt3__111__wrap_iterIPcEdeEv
	movb	-49(%rbp), %cl          ## 1-byte Reload
	movb	%cl, (%rax)
## %bb.3:                               ##   in Loop: Header=BB62_1 Depth=1
	leaq	-16(%rbp), %rdi
	callq	__ZNSt3__111__wrap_iterIPcEppEv
	leaq	-32(%rbp), %rdi
	movq	%rax, -64(%rbp)         ## 8-byte Spill
	callq	__ZNSt3__111__wrap_iterIPcEppEv
	jmp	LBB62_1
LBB62_4:
	movq	-32(%rbp), %rax
	movq	%rax, -8(%rbp)
	movq	-8(%rbp), %rax
	addq	$64, %rsp
	popq	%rbp
	retq
	.cfi_endproc
                                        ## -- End function
	.globl	__Z7toloweri            ## -- Begin function _Z7toloweri
	.weak_definition	__Z7toloweri
	.p2align	4, 0x90
__Z7toloweri:                           ## @_Z7toloweri
	.cfi_startproc
## %bb.0:
	pushq	%rbp
	.cfi_def_cfa_offset 16
	.cfi_offset %rbp, -16
	movq	%rsp, %rbp
	.cfi_def_cfa_register %rbp
	subq	$16, %rsp
	movl	%edi, -4(%rbp)
	movl	-4(%rbp), %edi
	callq	___tolower
	addq	$16, %rsp
	popq	%rbp
	retq
	.cfi_endproc
                                        ## -- End function
	.p2align	4, 0x90         ## -- Begin function _ZNSt3__1neIcNS_11char_traitsIcEENS_9allocatorIcEEEEbRKNS_12basic_stringIT_T0_T1_EESB_
__ZNSt3__1neIcNS_11char_traitsIcEENS_9allocatorIcEEEEbRKNS_12basic_stringIT_T0_T1_EESB_: ## @_ZNSt3__1neIcNS_11char_traitsIcEENS_9allocatorIcEEEEbRKNS_12basic_stringIT_T0_T1_EESB_
	.cfi_startproc
## %bb.0:
	pushq	%rbp
	.cfi_def_cfa_offset 16
	.cfi_offset %rbp, -16
	movq	%rsp, %rbp
	.cfi_def_cfa_register %rbp
	subq	$16, %rsp
	movq	%rdi, -8(%rbp)
	movq	%rsi, -16(%rbp)
	movq	-8(%rbp), %rdi
	movq	-16(%rbp), %rsi
	callq	__ZNSt3__1eqINS_9allocatorIcEEEEbRKNS_12basic_stringIcNS_11char_traitsIcEET_EES9_
	xorb	$-1, %al
	andb	$1, %al
	movzbl	%al, %eax
	addq	$16, %rsp
	popq	%rbp
	retq
	.cfi_endproc
                                        ## -- End function
	.p2align	4, 0x90         ## -- Begin function _ZNSt3__14__fs10filesystemL6removeERKNS1_4pathE
__ZNSt3__14__fs10filesystemL6removeERKNS1_4pathE: ## @_ZNSt3__14__fs10filesystemL6removeERKNS1_4pathE
	.cfi_startproc
## %bb.0:
	pushq	%rbp
	.cfi_def_cfa_offset 16
	.cfi_offset %rbp, -16
	movq	%rsp, %rbp
	.cfi_def_cfa_register %rbp
	subq	$16, %rsp
	xorl	%eax, %eax
	movl	%eax, %esi
	movq	%rdi, -8(%rbp)
	movq	-8(%rbp), %rdi
	callq	__ZNSt3__14__fs10filesystem8__removeERKNS1_4pathEPNS_10error_codeE
	andb	$1, %al
	movzbl	%al, %eax
	addq	$16, %rsp
	popq	%rbp
	retq
	.cfi_endproc
                                        ## -- End function
	.p2align	4, 0x90         ## -- Begin function _ZNSt3__1plIcNS_11char_traitsIcEENS_9allocatorIcEEEENS_12basic_stringIT_T0_T1_EEOS9_SA_
__ZNSt3__1plIcNS_11char_traitsIcEENS_9allocatorIcEEEENS_12basic_stringIT_T0_T1_EEOS9_SA_: ## @_ZNSt3__1plIcNS_11char_traitsIcEENS_9allocatorIcEEEENS_12basic_stringIT_T0_T1_EEOS9_SA_
	.cfi_startproc
## %bb.0:
	pushq	%rbp
	.cfi_def_cfa_offset 16
	.cfi_offset %rbp, -16
	movq	%rsp, %rbp
	.cfi_def_cfa_register %rbp
	subq	$48, %rsp
	movq	%rdi, %rax
	movq	%rdi, %rcx
	movq	%rcx, -8(%rbp)
	movq	%rsi, -16(%rbp)
	movq	%rdx, -24(%rbp)
	movq	-16(%rbp), %rcx
	movq	-24(%rbp), %rsi
	movq	%rdi, -32(%rbp)         ## 8-byte Spill
	movq	%rcx, %rdi
	movq	%rax, -40(%rbp)         ## 8-byte Spill
	callq	__ZNSt3__112basic_stringIcNS_11char_traitsIcEENS_9allocatorIcEEE6appendERKS5_
	movq	%rax, %rdi
	callq	__ZNSt3__1L4moveIRNS_12basic_stringIcNS_11char_traitsIcEENS_9allocatorIcEEEEEEONS_16remove_referenceIT_E4typeEOS9_
	movq	-32(%rbp), %rdi         ## 8-byte Reload
	movq	%rax, %rsi
	callq	__ZNSt3__112basic_stringIcNS_11char_traitsIcEENS_9allocatorIcEEEC1EOS5_
	movq	-40(%rbp), %rax         ## 8-byte Reload
	addq	$48, %rsp
	popq	%rbp
	retq
	.cfi_endproc
                                        ## -- End function
	.globl	__Z22generate_library_guideRKNSt3__14__fs10filesystem4pathERK17ThirdPartyLibrary ## -- Begin function _Z22generate_library_guideRKNSt3__14__fs10filesystem4pathERK17ThirdPartyLibrary
	.p2align	4, 0x90
__Z22generate_library_guideRKNSt3__14__fs10filesystem4pathERK17ThirdPartyLibrary: ## @_Z22generate_library_guideRKNSt3__14__fs10filesystem4pathERK17ThirdPartyLibrary
Lfunc_begin14:
	.cfi_startproc
	.cfi_personality 155, ___gxx_personality_v0
	.cfi_lsda 16, Lexception14
## %bb.0:
	pushq	%rbp
	.cfi_def_cfa_offset 16
	.cfi_offset %rbp, -16
	movq	%rsp, %rbp
	.cfi_def_cfa_register %rbp
	subq	$880, %rsp              ## imm = 0x370
	movq	___stack_chk_guard@GOTPCREL(%rip), %rax
	movq	(%rax), %rax
	movq	%rax, -8(%rbp)
	movq	%rdi, -584(%rbp)
	movq	%rsi, -592(%rbp)
	movq	-584(%rbp), %rsi
	leaq	L_.str.11(%rip), %rax
	leaq	-640(%rbp), %rcx
	xorl	%edx, %edx
	movq	%rcx, %rdi
	movq	%rsi, -808(%rbp)        ## 8-byte Spill
	movq	%rax, %rsi
	movq	%rcx, -816(%rbp)        ## 8-byte Spill
	callq	__ZNSt3__14__fs10filesystem4pathC1IA5_cvEERKT_NS2_6formatE
Ltmp387:
	leaq	-616(%rbp), %rdi
	movq	-808(%rbp), %rsi        ## 8-byte Reload
	movq	-816(%rbp), %rdx        ## 8-byte Reload
	callq	__ZNSt3__14__fs10filesystemdvERKNS1_4pathES4_
Ltmp388:
	jmp	LBB67_1
LBB67_1:
	leaq	-640(%rbp), %rdi
	callq	__ZNSt3__14__fs10filesystem4pathD1Ev
Ltmp390:
	leaq	-616(%rbp), %rdi
	callq	__ZNSt3__14__fs10filesystemL6existsERKNS1_4pathE
Ltmp391:
	movb	%al, -817(%rbp)         ## 1-byte Spill
	jmp	LBB67_2
LBB67_2:
	movb	-817(%rbp), %al         ## 1-byte Reload
	testb	$1, %al
	jne	LBB67_7
	jmp	LBB67_3
LBB67_3:
Ltmp392:
	leaq	-616(%rbp), %rdi
	callq	__ZNSt3__14__fs10filesystemL16create_directoryERKNS1_4pathE
Ltmp393:
	jmp	LBB67_4
LBB67_4:
	jmp	LBB67_7
LBB67_5:
Ltmp389:
                                        ## kill: def $edx killed $edx killed $rdx
	movq	%rax, -648(%rbp)
	movl	%edx, -652(%rbp)
	leaq	-640(%rbp), %rdi
	callq	__ZNSt3__14__fs10filesystem4pathD1Ev
	jmp	LBB67_62
LBB67_6:
Ltmp396:
                                        ## kill: def $edx killed $edx killed $rdx
	movq	%rax, -648(%rbp)
	movl	%edx, -652(%rbp)
	jmp	LBB67_61
LBB67_7:
	movq	-592(%rbp), %rsi
Ltmp394:
	leaq	L_.str.67(%rip), %rdx
	leaq	-728(%rbp), %rdi
	callq	__ZNSt3__1plIcNS_11char_traitsIcEENS_9allocatorIcEEEENS_12basic_stringIT_T0_T1_EERKS9_PKS6_
Ltmp395:
	jmp	LBB67_8
LBB67_8:
	leaq	-704(%rbp), %rax
	leaq	-728(%rbp), %rsi
	xorl	%edx, %edx
	movq	%rax, %rdi
	movq	%rax, -832(%rbp)        ## 8-byte Spill
	callq	__ZNSt3__14__fs10filesystem4pathC1EONS_12basic_stringIcNS_11char_traitsIcEENS_9allocatorIcEEEENS2_6formatE
Ltmp397:
	leaq	-680(%rbp), %rdi
	leaq	-616(%rbp), %rsi
	movq	-832(%rbp), %rdx        ## 8-byte Reload
	callq	__ZNSt3__14__fs10filesystemdvERKNS1_4pathES4_
Ltmp398:
	jmp	LBB67_9
LBB67_9:
	leaq	-704(%rbp), %rdi
	callq	__ZNSt3__14__fs10filesystem4pathD1Ev
	leaq	-728(%rbp), %rdi
	callq	__ZNSt3__112basic_stringIcNS_11char_traitsIcEENS_9allocatorIcEEED1Ev
Ltmp400:
	leaq	-576(%rbp), %rdi
	leaq	-680(%rbp), %rsi
	movl	$16, %edx
	callq	__ZNSt3__114basic_ofstreamIcNS_11char_traitsIcEEEC1ERKNS_4__fs10filesystem4pathEj
Ltmp401:
	jmp	LBB67_10
LBB67_10:
Ltmp403:
	leaq	L_.str.68(%rip), %rsi
	leaq	-576(%rbp), %rdi
	callq	__ZNSt3__1lsINS_11char_traitsIcEEEERNS_13basic_ostreamIcT_EES6_PKc
Ltmp404:
	movq	%rax, -840(%rbp)        ## 8-byte Spill
	jmp	LBB67_11
LBB67_11:
	movq	-592(%rbp), %rsi
Ltmp405:
	movq	-840(%rbp), %rdi        ## 8-byte Reload
	callq	__ZNSt3__1lsIcNS_11char_traitsIcEENS_9allocatorIcEEEERNS_13basic_ostreamIT_T0_EES9_RKNS_12basic_stringIS6_S7_T1_EE
Ltmp406:
	movq	%rax, -848(%rbp)        ## 8-byte Spill
	jmp	LBB67_12
LBB67_12:
Ltmp407:
	leaq	L_.str.69(%rip), %rsi
	movq	-848(%rbp), %rdi        ## 8-byte Reload
	callq	__ZNSt3__1lsINS_11char_traitsIcEEEERNS_13basic_ostreamIcT_EES6_PKc
Ltmp408:
	jmp	LBB67_13
LBB67_13:
Ltmp409:
	leaq	L_.str.70(%rip), %rsi
	leaq	-576(%rbp), %rdi
	callq	__ZNSt3__1lsINS_11char_traitsIcEEEERNS_13basic_ostreamIcT_EES6_PKc
Ltmp410:
	jmp	LBB67_14
LBB67_14:
Ltmp411:
	leaq	L_.str.71(%rip), %rsi
	leaq	-576(%rbp), %rdi
	callq	__ZNSt3__1lsINS_11char_traitsIcEEEERNS_13basic_ostreamIcT_EES6_PKc
Ltmp412:
	movq	%rax, -856(%rbp)        ## 8-byte Spill
	jmp	LBB67_15
LBB67_15:
	movq	-592(%rbp), %rax
	addq	$24, %rax
Ltmp413:
	leaq	-800(%rbp), %rdi
	xorl	%edx, %edx
	movq	%rax, %rsi
	callq	__ZNSt3__14__fs10filesystem4pathC1INS_12basic_stringIcNS_11char_traitsIcEENS_9allocatorIcEEEEvEERKT_NS2_6formatE
Ltmp414:
	jmp	LBB67_16
LBB67_16:
Ltmp415:
	leaq	-776(%rbp), %rdi
	leaq	-800(%rbp), %rsi
	callq	__ZNKSt3__14__fs10filesystem4path4stemEv
Ltmp416:
	jmp	LBB67_17
LBB67_17:
Ltmp418:
	leaq	-752(%rbp), %rdi
	leaq	-776(%rbp), %rsi
	callq	__ZNKSt3__14__fs10filesystem4path6stringEv
Ltmp419:
	jmp	LBB67_18
LBB67_18:
Ltmp421:
	leaq	-752(%rbp), %rsi
	movq	-856(%rbp), %rdi        ## 8-byte Reload
	callq	__ZNSt3__1lsIcNS_11char_traitsIcEENS_9allocatorIcEEEERNS_13basic_ostreamIT_T0_EES9_RKNS_12basic_stringIS6_S7_T1_EE
Ltmp422:
	movq	%rax, -864(%rbp)        ## 8-byte Spill
	jmp	LBB67_19
LBB67_19:
Ltmp423:
	leaq	L_.str.72(%rip), %rsi
	movq	-864(%rbp), %rdi        ## 8-byte Reload
	callq	__ZNSt3__1lsINS_11char_traitsIcEEEERNS_13basic_ostreamIcT_EES6_PKc
Ltmp424:
	jmp	LBB67_20
LBB67_20:
	leaq	-752(%rbp), %rdi
	callq	__ZNSt3__112basic_stringIcNS_11char_traitsIcEENS_9allocatorIcEEED1Ev
	leaq	-776(%rbp), %rdi
	callq	__ZNSt3__14__fs10filesystem4pathD1Ev
	leaq	-800(%rbp), %rdi
	callq	__ZNSt3__14__fs10filesystem4pathD1Ev
Ltmp426:
	leaq	L_.str.73(%rip), %rsi
	leaq	-576(%rbp), %rdi
	callq	__ZNSt3__1lsINS_11char_traitsIcEEEERNS_13basic_ostreamIcT_EES6_PKc
Ltmp427:
	jmp	LBB67_21
LBB67_21:
Ltmp428:
	leaq	L_.str.74(%rip), %rsi
	leaq	-576(%rbp), %rdi
	callq	__ZNSt3__1lsINS_11char_traitsIcEEEERNS_13basic_ostreamIcT_EES6_PKc
Ltmp429:
	jmp	LBB67_22
LBB67_22:
Ltmp430:
	leaq	L_.str.75(%rip), %rsi
	leaq	-576(%rbp), %rdi
	callq	__ZNSt3__1lsINS_11char_traitsIcEEEERNS_13basic_ostreamIcT_EES6_PKc
Ltmp431:
	movq	%rax, -872(%rbp)        ## 8-byte Spill
	jmp	LBB67_23
LBB67_23:
	movq	-592(%rbp), %rax
	addq	$120, %rax
Ltmp432:
	movq	-872(%rbp), %rdi        ## 8-byte Reload
	movq	%rax, %rsi
	callq	__ZNSt3__1lsIcNS_11char_traitsIcEENS_9allocatorIcEEEERNS_13basic_ostreamIT_T0_EES9_RKNS_12basic_stringIS6_S7_T1_EE
Ltmp433:
	movq	%rax, -880(%rbp)        ## 8-byte Spill
	jmp	LBB67_24
LBB67_24:
Ltmp434:
	leaq	L_.str.76(%rip), %rsi
	movq	-880(%rbp), %rdi        ## 8-byte Reload
	callq	__ZNSt3__1lsINS_11char_traitsIcEEEERNS_13basic_ostreamIcT_EES6_PKc
Ltmp435:
	jmp	LBB67_25
LBB67_25:
Ltmp436:
	leaq	L_.str.77(%rip), %rsi
	leaq	-576(%rbp), %rdi
	callq	__ZNSt3__1lsINS_11char_traitsIcEEEERNS_13basic_ostreamIcT_EES6_PKc
Ltmp437:
	jmp	LBB67_26
LBB67_26:
	movq	-592(%rbp), %rdi
	leaq	L_.str.27(%rip), %rsi
	callq	__ZNSt3__1eqIcNS_11char_traitsIcEENS_9allocatorIcEEEEbRKNS_12basic_stringIT_T0_T1_EEPKS6_
	testb	$1, %al
	jne	LBB67_27
	jmp	LBB67_37
LBB67_27:
Ltmp442:
	leaq	L_.str.78(%rip), %rsi
	leaq	-576(%rbp), %rdi
	callq	__ZNSt3__1lsINS_11char_traitsIcEEEERNS_13basic_ostreamIcT_EES6_PKc
Ltmp443:
	jmp	LBB67_28
LBB67_28:
	jmp	LBB67_45
LBB67_29:
Ltmp399:
                                        ## kill: def $edx killed $edx killed $rdx
	movq	%rax, -648(%rbp)
	movl	%edx, -652(%rbp)
	leaq	-704(%rbp), %rdi
	callq	__ZNSt3__14__fs10filesystem4pathD1Ev
	leaq	-728(%rbp), %rdi
	callq	__ZNSt3__112basic_stringIcNS_11char_traitsIcEENS_9allocatorIcEEED1Ev
	jmp	LBB67_61
LBB67_30:
Ltmp402:
                                        ## kill: def $edx killed $edx killed $rdx
	movq	%rax, -648(%rbp)
	movl	%edx, -652(%rbp)
	jmp	LBB67_60
LBB67_31:
Ltmp452:
                                        ## kill: def $edx killed $edx killed $rdx
	movq	%rax, -648(%rbp)
	movl	%edx, -652(%rbp)
	jmp	LBB67_59
LBB67_32:
Ltmp417:
                                        ## kill: def $edx killed $edx killed $rdx
	movq	%rax, -648(%rbp)
	movl	%edx, -652(%rbp)
	jmp	LBB67_36
LBB67_33:
Ltmp420:
                                        ## kill: def $edx killed $edx killed $rdx
	movq	%rax, -648(%rbp)
	movl	%edx, -652(%rbp)
	jmp	LBB67_35
LBB67_34:
Ltmp425:
                                        ## kill: def $edx killed $edx killed $rdx
	movq	%rax, -648(%rbp)
	movl	%edx, -652(%rbp)
	leaq	-752(%rbp), %rdi
	callq	__ZNSt3__112basic_stringIcNS_11char_traitsIcEENS_9allocatorIcEEED1Ev
LBB67_35:
	leaq	-776(%rbp), %rdi
	callq	__ZNSt3__14__fs10filesystem4pathD1Ev
LBB67_36:
	leaq	-800(%rbp), %rdi
	callq	__ZNSt3__14__fs10filesystem4pathD1Ev
	jmp	LBB67_59
LBB67_37:
	movq	-592(%rbp), %rdi
	leaq	L_.str.34(%rip), %rsi
	callq	__ZNSt3__1eqIcNS_11char_traitsIcEENS_9allocatorIcEEEEbRKNS_12basic_stringIT_T0_T1_EEPKS6_
	testb	$1, %al
	jne	LBB67_38
	jmp	LBB67_40
LBB67_38:
Ltmp440:
	leaq	L_.str.79(%rip), %rsi
	leaq	-576(%rbp), %rdi
	callq	__ZNSt3__1lsINS_11char_traitsIcEEEERNS_13basic_ostreamIcT_EES6_PKc
Ltmp441:
	jmp	LBB67_39
LBB67_39:
	jmp	LBB67_44
LBB67_40:
	movq	-592(%rbp), %rdi
	leaq	L_.str.41(%rip), %rsi
	callq	__ZNSt3__1eqIcNS_11char_traitsIcEENS_9allocatorIcEEEEbRKNS_12basic_stringIT_T0_T1_EEPKS6_
	testb	$1, %al
	jne	LBB67_41
	jmp	LBB67_43
LBB67_41:
Ltmp438:
	leaq	L_.str.80(%rip), %rsi
	leaq	-576(%rbp), %rdi
	callq	__ZNSt3__1lsINS_11char_traitsIcEEEERNS_13basic_ostreamIcT_EES6_PKc
Ltmp439:
	jmp	LBB67_42
LBB67_42:
	jmp	LBB67_43
LBB67_43:
	jmp	LBB67_44
LBB67_44:
	jmp	LBB67_45
LBB67_45:
Ltmp444:
	leaq	L_.str.81(%rip), %rsi
	leaq	-576(%rbp), %rdi
	callq	__ZNSt3__1lsINS_11char_traitsIcEEEERNS_13basic_ostreamIcT_EES6_PKc
Ltmp445:
	jmp	LBB67_46
LBB67_46:
	movq	-592(%rbp), %rdi
	leaq	L_.str.27(%rip), %rsi
	callq	__ZNSt3__1eqIcNS_11char_traitsIcEENS_9allocatorIcEEEEbRKNS_12basic_stringIT_T0_T1_EEPKS6_
	testb	$1, %al
	jne	LBB67_47
	jmp	LBB67_49
LBB67_47:
Ltmp450:
	leaq	L_.str.82(%rip), %rsi
	leaq	-576(%rbp), %rdi
	callq	__ZNSt3__1lsINS_11char_traitsIcEEEERNS_13basic_ostreamIcT_EES6_PKc
Ltmp451:
	jmp	LBB67_48
LBB67_48:
	jmp	LBB67_57
LBB67_49:
	movq	-592(%rbp), %rdi
	leaq	L_.str.34(%rip), %rsi
	callq	__ZNSt3__1eqIcNS_11char_traitsIcEENS_9allocatorIcEEEEbRKNS_12basic_stringIT_T0_T1_EEPKS6_
	testb	$1, %al
	jne	LBB67_50
	jmp	LBB67_52
LBB67_50:
Ltmp448:
	leaq	L_.str.83(%rip), %rsi
	leaq	-576(%rbp), %rdi
	callq	__ZNSt3__1lsINS_11char_traitsIcEEEERNS_13basic_ostreamIcT_EES6_PKc
Ltmp449:
	jmp	LBB67_51
LBB67_51:
	jmp	LBB67_56
LBB67_52:
	movq	-592(%rbp), %rdi
	leaq	L_.str.41(%rip), %rsi
	callq	__ZNSt3__1eqIcNS_11char_traitsIcEENS_9allocatorIcEEEEbRKNS_12basic_stringIT_T0_T1_EEPKS6_
	testb	$1, %al
	jne	LBB67_53
	jmp	LBB67_55
LBB67_53:
Ltmp446:
	leaq	L_.str.84(%rip), %rsi
	leaq	-576(%rbp), %rdi
	callq	__ZNSt3__1lsINS_11char_traitsIcEEEERNS_13basic_ostreamIcT_EES6_PKc
Ltmp447:
	jmp	LBB67_54
LBB67_54:
	jmp	LBB67_55
LBB67_55:
	jmp	LBB67_56
LBB67_56:
	jmp	LBB67_57
LBB67_57:
	leaq	-576(%rbp), %rdi
	callq	__ZNSt3__114basic_ofstreamIcNS_11char_traitsIcEEED1Ev
	leaq	-680(%rbp), %rdi
	callq	__ZNSt3__14__fs10filesystem4pathD1Ev
	leaq	-616(%rbp), %rdi
	callq	__ZNSt3__14__fs10filesystem4pathD1Ev
	movq	___stack_chk_guard@GOTPCREL(%rip), %rax
	movq	(%rax), %rax
	movq	-8(%rbp), %rcx
	cmpq	%rcx, %rax
	jne	LBB67_63
## %bb.58:
	addq	$880, %rsp              ## imm = 0x370
	popq	%rbp
	retq
LBB67_59:
	leaq	-576(%rbp), %rdi
	callq	__ZNSt3__114basic_ofstreamIcNS_11char_traitsIcEEED1Ev
LBB67_60:
	leaq	-680(%rbp), %rdi
	callq	__ZNSt3__14__fs10filesystem4pathD1Ev
LBB67_61:
	leaq	-616(%rbp), %rdi
	callq	__ZNSt3__14__fs10filesystem4pathD1Ev
LBB67_62:
	movq	-648(%rbp), %rdi
	callq	__Unwind_Resume
	ud2
LBB67_63:
	callq	___stack_chk_fail
	ud2
Lfunc_end14:
	.cfi_endproc
	.section	__TEXT,__gcc_except_tab
	.p2align	2
GCC_except_table67:
Lexception14:
	.byte	255                     ## @LPStart Encoding = omit
	.byte	255                     ## @TType Encoding = omit
	.byte	1                       ## Call site Encoding = uleb128
	.uleb128 Lcst_end14-Lcst_begin14
Lcst_begin14:
	.uleb128 Lfunc_begin14-Lfunc_begin14 ## >> Call Site 1 <<
	.uleb128 Ltmp387-Lfunc_begin14  ##   Call between Lfunc_begin14 and Ltmp387
	.byte	0                       ##     has no landing pad
	.byte	0                       ##   On action: cleanup
	.uleb128 Ltmp387-Lfunc_begin14  ## >> Call Site 2 <<
	.uleb128 Ltmp388-Ltmp387        ##   Call between Ltmp387 and Ltmp388
	.uleb128 Ltmp389-Lfunc_begin14  ##     jumps to Ltmp389
	.byte	0                       ##   On action: cleanup
	.uleb128 Ltmp390-Lfunc_begin14  ## >> Call Site 3 <<
	.uleb128 Ltmp395-Ltmp390        ##   Call between Ltmp390 and Ltmp395
	.uleb128 Ltmp396-Lfunc_begin14  ##     jumps to Ltmp396
	.byte	0                       ##   On action: cleanup
	.uleb128 Ltmp397-Lfunc_begin14  ## >> Call Site 4 <<
	.uleb128 Ltmp398-Ltmp397        ##   Call between Ltmp397 and Ltmp398
	.uleb128 Ltmp399-Lfunc_begin14  ##     jumps to Ltmp399
	.byte	0                       ##   On action: cleanup
	.uleb128 Ltmp400-Lfunc_begin14  ## >> Call Site 5 <<
	.uleb128 Ltmp401-Ltmp400        ##   Call between Ltmp400 and Ltmp401
	.uleb128 Ltmp402-Lfunc_begin14  ##     jumps to Ltmp402
	.byte	0                       ##   On action: cleanup
	.uleb128 Ltmp403-Lfunc_begin14  ## >> Call Site 6 <<
	.uleb128 Ltmp414-Ltmp403        ##   Call between Ltmp403 and Ltmp414
	.uleb128 Ltmp452-Lfunc_begin14  ##     jumps to Ltmp452
	.byte	0                       ##   On action: cleanup
	.uleb128 Ltmp415-Lfunc_begin14  ## >> Call Site 7 <<
	.uleb128 Ltmp416-Ltmp415        ##   Call between Ltmp415 and Ltmp416
	.uleb128 Ltmp417-Lfunc_begin14  ##     jumps to Ltmp417
	.byte	0                       ##   On action: cleanup
	.uleb128 Ltmp418-Lfunc_begin14  ## >> Call Site 8 <<
	.uleb128 Ltmp419-Ltmp418        ##   Call between Ltmp418 and Ltmp419
	.uleb128 Ltmp420-Lfunc_begin14  ##     jumps to Ltmp420
	.byte	0                       ##   On action: cleanup
	.uleb128 Ltmp421-Lfunc_begin14  ## >> Call Site 9 <<
	.uleb128 Ltmp424-Ltmp421        ##   Call between Ltmp421 and Ltmp424
	.uleb128 Ltmp425-Lfunc_begin14  ##     jumps to Ltmp425
	.byte	0                       ##   On action: cleanup
	.uleb128 Ltmp426-Lfunc_begin14  ## >> Call Site 10 <<
	.uleb128 Ltmp447-Ltmp426        ##   Call between Ltmp426 and Ltmp447
	.uleb128 Ltmp452-Lfunc_begin14  ##     jumps to Ltmp452
	.byte	0                       ##   On action: cleanup
	.uleb128 Ltmp447-Lfunc_begin14  ## >> Call Site 11 <<
	.uleb128 Lfunc_end14-Ltmp447    ##   Call between Ltmp447 and Lfunc_end14
	.byte	0                       ##     has no landing pad
	.byte	0                       ##   On action: cleanup
Lcst_end14:
	.p2align	2
                                        ## -- End function
	.section	__TEXT,__text,regular,pure_instructions
	.globl	__ZNSt3__14__fs10filesystem4pathC1IA5_cvEERKT_NS2_6formatE ## -- Begin function _ZNSt3__14__fs10filesystem4pathC1IA5_cvEERKT_NS2_6formatE
	.weak_def_can_be_hidden	__ZNSt3__14__fs10filesystem4pathC1IA5_cvEERKT_NS2_6formatE
	.p2align	4, 0x90
__ZNSt3__14__fs10filesystem4pathC1IA5_cvEERKT_NS2_6formatE: ## @_ZNSt3__14__fs10filesystem4pathC1IA5_cvEERKT_NS2_6formatE
	.cfi_startproc
## %bb.0:
	pushq	%rbp
	.cfi_def_cfa_offset 16
	.cfi_offset %rbp, -16
	movq	%rsp, %rbp
	.cfi_def_cfa_register %rbp
	subq	$32, %rsp
                                        ## kill: def $dl killed $dl killed $edx
	movq	%rdi, -8(%rbp)
	movq	%rsi, -16(%rbp)
	movb	%dl, -17(%rbp)
	movq	-8(%rbp), %rdi
	movq	-16(%rbp), %rsi
	movzbl	-17(%rbp), %edx
	callq	__ZNSt3__14__fs10filesystem4pathC2IA5_cvEERKT_NS2_6formatE
	addq	$32, %rsp
	popq	%rbp
	retq
	.cfi_endproc
                                        ## -- End function
	.p2align	4, 0x90         ## -- Begin function _ZNKSt3__14__fs10filesystem4path4stemEv
__ZNKSt3__14__fs10filesystem4path4stemEv: ## @_ZNKSt3__14__fs10filesystem4path4stemEv
	.cfi_startproc
## %bb.0:
	pushq	%rbp
	.cfi_def_cfa_offset 16
	.cfi_offset %rbp, -16
	movq	%rsp, %rbp
	.cfi_def_cfa_register %rbp
	subq	$80, %rsp
	movq	%rdi, %rax
	movq	%rdi, %rcx
	movq	%rcx, -8(%rbp)
	movq	%rsi, -16(%rbp)
	movq	-16(%rbp), %rcx
	movq	%rdi, -64(%rbp)         ## 8-byte Spill
	movq	%rcx, %rdi
	movq	%rax, -72(%rbp)         ## 8-byte Spill
	callq	__ZNKSt3__14__fs10filesystem4path6__stemEv
	movq	%rax, -56(%rbp)
	movq	%rdx, -48(%rbp)
	leaq	-40(%rbp), %rdi
	leaq	-56(%rbp), %rsi
	callq	__ZNSt3__112basic_stringIcNS_11char_traitsIcEENS_9allocatorIcEEEC1INS_17basic_string_viewIcS2_EEvEERKT_
	xorl	%edx, %edx
	movq	-64(%rbp), %rdi         ## 8-byte Reload
	leaq	-40(%rbp), %rsi
	callq	__ZNSt3__14__fs10filesystem4pathC1EONS_12basic_stringIcNS_11char_traitsIcEENS_9allocatorIcEEEENS2_6formatE
	leaq	-40(%rbp), %rdi
	callq	__ZNSt3__112basic_stringIcNS_11char_traitsIcEENS_9allocatorIcEEED1Ev
	movq	-72(%rbp), %rax         ## 8-byte Reload
	addq	$80, %rsp
	popq	%rbp
	retq
	.cfi_endproc
                                        ## -- End function
	.p2align	4, 0x90         ## -- Begin function _ZNSt3__1eqIcNS_11char_traitsIcEENS_9allocatorIcEEEEbRKNS_12basic_stringIT_T0_T1_EEPKS6_
__ZNSt3__1eqIcNS_11char_traitsIcEENS_9allocatorIcEEEEbRKNS_12basic_stringIT_T0_T1_EEPKS6_: ## @_ZNSt3__1eqIcNS_11char_traitsIcEENS_9allocatorIcEEEEbRKNS_12basic_stringIT_T0_T1_EEPKS6_
Lfunc_begin15:
	.cfi_startproc
	.cfi_personality 155, ___gxx_personality_v0
	.cfi_lsda 16, Lexception15
## %bb.0:
	pushq	%rbp
	.cfi_def_cfa_offset 16
	.cfi_offset %rbp, -16
	movq	%rsp, %rbp
	.cfi_def_cfa_register %rbp
	subq	$64, %rsp
	movq	%rdi, -16(%rbp)
	movq	%rsi, -24(%rbp)
	movq	-24(%rbp), %rdi
	callq	__ZNSt3__111char_traitsIcE6lengthEPKc
	movq	%rax, -32(%rbp)
	movq	-32(%rbp), %rax
	movq	-16(%rbp), %rdi
	movq	%rax, -40(%rbp)         ## 8-byte Spill
	callq	__ZNKSt3__112basic_stringIcNS_11char_traitsIcEENS_9allocatorIcEEE4sizeEv
	movq	-40(%rbp), %rcx         ## 8-byte Reload
	cmpq	%rax, %rcx
	je	LBB70_2
## %bb.1:
	movb	$0, -1(%rbp)
	jmp	LBB70_4
LBB70_2:
	movq	-16(%rbp), %rdi
	movq	-24(%rbp), %rcx
	movq	-32(%rbp), %r8
Ltmp453:
	xorl	%eax, %eax
	movl	%eax, %esi
	movq	$-1, %rdx
	callq	__ZNKSt3__112basic_stringIcNS_11char_traitsIcEENS_9allocatorIcEEE7compareEmmPKcm
Ltmp454:
	movl	%eax, -44(%rbp)         ## 4-byte Spill
	jmp	LBB70_3
LBB70_3:
	movl	-44(%rbp), %eax         ## 4-byte Reload
	cmpl	$0, %eax
	sete	%cl
	andb	$1, %cl
	movb	%cl, -1(%rbp)
LBB70_4:
	movb	-1(%rbp), %al
	andb	$1, %al
	movzbl	%al, %eax
	addq	$64, %rsp
	popq	%rbp
	retq
LBB70_5:
Ltmp455:
	movq	%rax, %rdi
	movq	%rdx, -56(%rbp)         ## 8-byte Spill
	callq	___clang_call_terminate
Lfunc_end15:
	.cfi_endproc
	.section	__TEXT,__gcc_except_tab
	.p2align	2
GCC_except_table70:
Lexception15:
	.byte	255                     ## @LPStart Encoding = omit
	.byte	155                     ## @TType Encoding = indirect pcrel sdata4
	.uleb128 Lttbase2-Lttbaseref2
Lttbaseref2:
	.byte	1                       ## Call site Encoding = uleb128
	.uleb128 Lcst_end15-Lcst_begin15
Lcst_begin15:
	.uleb128 Ltmp453-Lfunc_begin15  ## >> Call Site 1 <<
	.uleb128 Ltmp454-Ltmp453        ##   Call between Ltmp453 and Ltmp454
	.uleb128 Ltmp455-Lfunc_begin15  ##     jumps to Ltmp455
	.byte	1                       ##   On action: 1
Lcst_end15:
	.byte	1                       ## >> Action Record 1 <<
                                        ##   Catch TypeInfo 1
	.byte	0                       ##   No further actions
	.p2align	2
                                        ## >> Catch TypeInfos <<
	.long	0                       ## TypeInfo 1
Lttbase2:
	.p2align	2
                                        ## -- End function
	.section	__TEXT,__text,regular,pure_instructions
	.globl	__Z23add_third_party_libraryRKNSt3__14__fs10filesystem4pathERKNS_12basic_stringIcNS_11char_traitsIcEENS_9allocatorIcEEEE ## -- Begin function _Z23add_third_party_libraryRKNSt3__14__fs10filesystem4pathERKNS_12basic_stringIcNS_11char_traitsIcEENS_9allocatorIcEEEE
	.p2align	4, 0x90
__Z23add_third_party_libraryRKNSt3__14__fs10filesystem4pathERKNS_12basic_stringIcNS_11char_traitsIcEENS_9allocatorIcEEEE: ## @_Z23add_third_party_libraryRKNSt3__14__fs10filesystem4pathERKNS_12basic_stringIcNS_11char_traitsIcEENS_9allocatorIcEEEE
Lfunc_begin16:
	.cfi_startproc
	.cfi_personality 155, ___gxx_personality_v0
	.cfi_lsda 16, Lexception16
## %bb.0:
	pushq	%rbp
	.cfi_def_cfa_offset 16
	.cfi_offset %rbp, -16
	movq	%rsp, %rbp
	.cfi_def_cfa_register %rbp
	subq	$992, %rsp              ## imm = 0x3E0
	movq	___stack_chk_guard@GOTPCREL(%rip), %rax
	movq	(%rax), %rax
	movq	%rax, -8(%rbp)
	movq	%rdi, -584(%rbp)
	movq	%rsi, -592(%rbp)
	cmpb	$0, __ZGVZ23add_third_party_libraryRKNSt3__14__fs10filesystem4pathERKNS_12basic_stringIcNS_11char_traitsIcEENS_9allocatorIcEEEEE14installed_libs(%rip)
	jne	LBB71_3
## %bb.1:
	leaq	__ZGVZ23add_third_party_libraryRKNSt3__14__fs10filesystem4pathERKNS_12basic_stringIcNS_11char_traitsIcEENS_9allocatorIcEEEEE14installed_libs(%rip), %rdi
	callq	___cxa_guard_acquire
	cmpl	$0, %eax
	je	LBB71_3
## %bb.2:
	leaq	__ZZ23add_third_party_libraryRKNSt3__14__fs10filesystem4pathERKNS_12basic_stringIcNS_11char_traitsIcEENS_9allocatorIcEEEEE14installed_libs(%rip), %rdi
	callq	__ZNSt3__13setINS_12basic_stringIcNS_11char_traitsIcEENS_9allocatorIcEEEENS_4lessIS6_EENS4_IS6_EEEC1Ev
	leaq	__ZNSt3__13setINS_12basic_stringIcNS_11char_traitsIcEENS_9allocatorIcEEEENS_4lessIS6_EENS4_IS6_EEED1Ev(%rip), %rax
	leaq	__ZZ23add_third_party_libraryRKNSt3__14__fs10filesystem4pathERKNS_12basic_stringIcNS_11char_traitsIcEENS_9allocatorIcEEEEE14installed_libs(%rip), %rcx
	movq	%rax, %rdi
	movq	%rcx, %rsi
	leaq	___dso_handle(%rip), %rdx
	callq	___cxa_atexit
	leaq	__ZGVZ23add_third_party_libraryRKNSt3__14__fs10filesystem4pathERKNS_12basic_stringIcNS_11char_traitsIcEENS_9allocatorIcEEEEE14installed_libs(%rip), %rdi
	movl	%eax, -820(%rbp)        ## 4-byte Spill
	callq	___cxa_guard_release
LBB71_3:
	movq	-592(%rbp), %rsi
	leaq	__ZZ23add_third_party_libraryRKNSt3__14__fs10filesystem4pathERKNS_12basic_stringIcNS_11char_traitsIcEENS_9allocatorIcEEEEE14installed_libs(%rip), %rdi
	callq	__ZNSt3__13setINS_12basic_stringIcNS_11char_traitsIcEENS_9allocatorIcEEEENS_4lessIS6_EENS4_IS6_EEE4findERKS6_
	movq	%rax, -600(%rbp)
	leaq	__ZZ23add_third_party_libraryRKNSt3__14__fs10filesystem4pathERKNS_12basic_stringIcNS_11char_traitsIcEENS_9allocatorIcEEEEE14installed_libs(%rip), %rdi
	callq	__ZNSt3__13setINS_12basic_stringIcNS_11char_traitsIcEENS_9allocatorIcEEEENS_4lessIS6_EENS4_IS6_EEE3endEv
	movq	%rax, -608(%rbp)
	leaq	-600(%rbp), %rdi
	leaq	-608(%rbp), %rsi
	callq	__ZNSt3__1neERKNS_21__tree_const_iteratorINS_12basic_stringIcNS_11char_traitsIcEENS_9allocatorIcEEEEPNS_11__tree_nodeIS6_PvEElEESD_
	testb	$1, %al
	jne	LBB71_4
	jmp	LBB71_5
LBB71_4:
	movq	__ZNSt3__14coutE@GOTPCREL(%rip), %rdi
	movq	-592(%rbp), %rsi
	callq	__ZNSt3__1lsIcNS_11char_traitsIcEENS_9allocatorIcEEEERNS_13basic_ostreamIT_T0_EES9_RKNS_12basic_stringIS6_S7_T1_EE
	movq	%rax, %rdi
	leaq	L_.str.85(%rip), %rsi
	callq	__ZNSt3__1lsINS_11char_traitsIcEEEERNS_13basic_ostreamIcT_EES6_PKc
	jmp	LBB71_54
LBB71_5:
	movq	-592(%rbp), %rsi
	leaq	__ZZ23add_third_party_libraryRKNSt3__14__fs10filesystem4pathERKNS_12basic_stringIcNS_11char_traitsIcEENS_9allocatorIcEEEEE14installed_libs(%rip), %rdi
	callq	__ZNSt3__13setINS_12basic_stringIcNS_11char_traitsIcEENS_9allocatorIcEEEENS_4lessIS6_EENS4_IS6_EEE6insertERKS6_
	movq	%rax, -624(%rbp)
	movb	%dl, -616(%rbp)
	movq	-584(%rbp), %rdi
	callq	__Z22create_third_party_dirRKNSt3__14__fs10filesystem4pathE
	movq	-592(%rbp), %rsi
	leaq	-648(%rbp), %rax
	movq	%rax, %rdi
	movq	%rax, -832(%rbp)        ## 8-byte Spill
	callq	__ZNSt3__112basic_stringIcNS_11char_traitsIcEENS_9allocatorIcEEEC1ERKS5_
	movq	-832(%rbp), %rdi        ## 8-byte Reload
	callq	__ZNSt3__112basic_stringIcNS_11char_traitsIcEENS_9allocatorIcEEE5beginEv
	movq	%rax, -656(%rbp)
	movq	-832(%rbp), %rdi        ## 8-byte Reload
	callq	__ZNSt3__112basic_stringIcNS_11char_traitsIcEENS_9allocatorIcEEE3endEv
	movq	%rax, -664(%rbp)
	movq	-832(%rbp), %rdi        ## 8-byte Reload
	callq	__ZNSt3__112basic_stringIcNS_11char_traitsIcEENS_9allocatorIcEEE5beginEv
	movq	%rax, -672(%rbp)
	movq	-656(%rbp), %rdi
	movq	-664(%rbp), %rsi
	movq	-672(%rbp), %rdx
Ltmp456:
	callq	__ZNSt3__1L9transformINS_11__wrap_iterIPcEES3_Z23add_third_party_libraryRKNS_4__fs10filesystem4pathERKNS_12basic_stringIcNS_11char_traitsIcEENS_9allocatorIcEEEEE3$_2EET0_T_SJ_SI_T1_
Ltmp457:
	movq	%rax, -840(%rbp)        ## 8-byte Spill
	jmp	LBB71_6
LBB71_6:
	movq	-840(%rbp), %rax        ## 8-byte Reload
	movq	%rax, -704(%rbp)
Ltmp458:
	leaq	_SUPPORTED_LIBRARIES(%rip), %rdi
	leaq	-648(%rbp), %rsi
	callq	__ZNSt3__113unordered_mapINS_12basic_stringIcNS_11char_traitsIcEENS_9allocatorIcEEEE17ThirdPartyLibraryNS_4hashIS6_EENS_8equal_toIS6_EENS4_INS_4pairIKS6_S7_EEEEE4findERSD_
Ltmp459:
	movq	%rax, -848(%rbp)        ## 8-byte Spill
	jmp	LBB71_7
LBB71_7:
	movq	-848(%rbp), %rax        ## 8-byte Reload
	movq	%rax, -712(%rbp)
	leaq	_SUPPORTED_LIBRARIES(%rip), %rdi
	callq	__ZNSt3__113unordered_mapINS_12basic_stringIcNS_11char_traitsIcEENS_9allocatorIcEEEE17ThirdPartyLibraryNS_4hashIS6_EENS_8equal_toIS6_EENS4_INS_4pairIKS6_S7_EEEEE3endEv
	movq	%rax, -720(%rbp)
Ltmp460:
	leaq	-712(%rbp), %rdi
	leaq	-720(%rbp), %rsi
	callq	__ZNSt3__1eqERKNS_19__hash_map_iteratorINS_15__hash_iteratorIPNS_11__hash_nodeINS_17__hash_value_typeINS_12basic_stringIcNS_11char_traitsIcEENS_9allocatorIcEEEE17ThirdPartyLibraryEEPvEEEEEESI_
Ltmp461:
	movb	%al, -849(%rbp)         ## 1-byte Spill
	jmp	LBB71_8
LBB71_8:
	movb	-849(%rbp), %al         ## 1-byte Reload
	testb	$1, %al
	jne	LBB71_9
	jmp	LBB71_25
LBB71_9:
Ltmp505:
	movq	__ZNSt3__14cerrE@GOTPCREL(%rip), %rdi
	leaq	L_.str.86(%rip), %rsi
	callq	__ZNSt3__1lsINS_11char_traitsIcEEEERNS_13basic_ostreamIcT_EES6_PKc
Ltmp506:
	movq	%rax, -864(%rbp)        ## 8-byte Spill
	jmp	LBB71_10
LBB71_10:
	movq	-592(%rbp), %rsi
Ltmp507:
	movq	-864(%rbp), %rdi        ## 8-byte Reload
	callq	__ZNSt3__1lsIcNS_11char_traitsIcEENS_9allocatorIcEEEERNS_13basic_ostreamIT_T0_EES9_RKNS_12basic_stringIS6_S7_T1_EE
Ltmp508:
	movq	%rax, -872(%rbp)        ## 8-byte Spill
	jmp	LBB71_11
LBB71_11:
Ltmp509:
	leaq	__ZNSt3__1L4endlIcNS_11char_traitsIcEEEERNS_13basic_ostreamIT_T0_EES7_(%rip), %rsi
	movq	-872(%rbp), %rdi        ## 8-byte Reload
	callq	__ZNSt3__113basic_ostreamIcNS_11char_traitsIcEEElsEPFRS3_S4_E
Ltmp510:
	jmp	LBB71_12
LBB71_12:
Ltmp511:
	movq	__ZNSt3__14coutE@GOTPCREL(%rip), %rdi
	leaq	L_.str.87(%rip), %rsi
	callq	__ZNSt3__1lsINS_11char_traitsIcEEEERNS_13basic_ostreamIcT_EES6_PKc
Ltmp512:
	jmp	LBB71_13
LBB71_13:
	leaq	_SUPPORTED_LIBRARIES(%rip), %rax
	movq	%rax, -728(%rbp)
	movq	%rax, %rdi
	callq	__ZNSt3__113unordered_mapINS_12basic_stringIcNS_11char_traitsIcEENS_9allocatorIcEEEE17ThirdPartyLibraryNS_4hashIS6_EENS_8equal_toIS6_EENS4_INS_4pairIKS6_S7_EEEEE5beginEv
	movq	%rax, -736(%rbp)
	leaq	_SUPPORTED_LIBRARIES(%rip), %rdi
	callq	__ZNSt3__113unordered_mapINS_12basic_stringIcNS_11char_traitsIcEENS_9allocatorIcEEEE17ThirdPartyLibraryNS_4hashIS6_EENS_8equal_toIS6_EENS4_INS_4pairIKS6_S7_EEEEE3endEv
	movq	%rax, -744(%rbp)
LBB71_14:                               ## =>This Inner Loop Header: Depth=1
Ltmp513:
	leaq	-736(%rbp), %rdi
	leaq	-744(%rbp), %rsi
	callq	__ZNSt3__1neERKNS_19__hash_map_iteratorINS_15__hash_iteratorIPNS_11__hash_nodeINS_17__hash_value_typeINS_12basic_stringIcNS_11char_traitsIcEENS_9allocatorIcEEEE17ThirdPartyLibraryEEPvEEEEEESI_
Ltmp514:
	movb	%al, -873(%rbp)         ## 1-byte Spill
	jmp	LBB71_15
LBB71_15:                               ##   in Loop: Header=BB71_14 Depth=1
	movb	-873(%rbp), %al         ## 1-byte Reload
	testb	$1, %al
	jne	LBB71_16
	jmp	LBB71_23
LBB71_16:                               ##   in Loop: Header=BB71_14 Depth=1
Ltmp517:
	leaq	-736(%rbp), %rdi
	callq	__ZNKSt3__119__hash_map_iteratorINS_15__hash_iteratorIPNS_11__hash_nodeINS_17__hash_value_typeINS_12basic_stringIcNS_11char_traitsIcEENS_9allocatorIcEEEE17ThirdPartyLibraryEEPvEEEEEdeEv
Ltmp518:
	movq	%rax, -888(%rbp)        ## 8-byte Spill
	jmp	LBB71_17
LBB71_17:                               ##   in Loop: Header=BB71_14 Depth=1
	movq	-888(%rbp), %rax        ## 8-byte Reload
	movq	%rax, -752(%rbp)
	movq	-752(%rbp), %rsi
Ltmp519:
	movq	__ZNSt3__14coutE@GOTPCREL(%rip), %rdi
	callq	__ZNSt3__1lsIcNS_11char_traitsIcEENS_9allocatorIcEEEERNS_13basic_ostreamIT_T0_EES9_RKNS_12basic_stringIS6_S7_T1_EE
Ltmp520:
	movq	%rax, -896(%rbp)        ## 8-byte Spill
	jmp	LBB71_18
LBB71_18:                               ##   in Loop: Header=BB71_14 Depth=1
Ltmp521:
	leaq	L_.str.88(%rip), %rsi
	movq	-896(%rbp), %rdi        ## 8-byte Reload
	callq	__ZNSt3__1lsINS_11char_traitsIcEEEERNS_13basic_ostreamIcT_EES6_PKc
Ltmp522:
	jmp	LBB71_19
LBB71_19:                               ##   in Loop: Header=BB71_14 Depth=1
	jmp	LBB71_20
LBB71_20:                               ##   in Loop: Header=BB71_14 Depth=1
Ltmp523:
	leaq	-736(%rbp), %rdi
	callq	__ZNSt3__119__hash_map_iteratorINS_15__hash_iteratorIPNS_11__hash_nodeINS_17__hash_value_typeINS_12basic_stringIcNS_11char_traitsIcEENS_9allocatorIcEEEE17ThirdPartyLibraryEEPvEEEEEppEv
Ltmp524:
	jmp	LBB71_21
LBB71_21:                               ##   in Loop: Header=BB71_14 Depth=1
	jmp	LBB71_14
LBB71_22:
Ltmp525:
                                        ## kill: def $edx killed $edx killed $rdx
	movq	%rax, -688(%rbp)
	movl	%edx, -692(%rbp)
	jmp	LBB71_57
LBB71_23:
Ltmp515:
	movq	__ZNSt3__14coutE@GOTPCREL(%rip), %rdi
	leaq	__ZNSt3__1L4endlIcNS_11char_traitsIcEEEERNS_13basic_ostreamIT_T0_EES7_(%rip), %rsi
	callq	__ZNSt3__113basic_ostreamIcNS_11char_traitsIcEEElsEPFRS3_S4_E
Ltmp516:
	jmp	LBB71_24
LBB71_24:
	movl	$1, -756(%rbp)
	jmp	LBB71_53
LBB71_25:
Ltmp462:
	leaq	-712(%rbp), %rdi
	callq	__ZNKSt3__119__hash_map_iteratorINS_15__hash_iteratorIPNS_11__hash_nodeINS_17__hash_value_typeINS_12basic_stringIcNS_11char_traitsIcEENS_9allocatorIcEEEE17ThirdPartyLibraryEEPvEEEEEptEv
Ltmp463:
	movq	%rax, -904(%rbp)        ## 8-byte Spill
	jmp	LBB71_26
LBB71_26:
	movq	-904(%rbp), %rax        ## 8-byte Reload
	addq	$24, %rax
	movq	%rax, -768(%rbp)
Ltmp464:
	movq	__ZNSt3__14coutE@GOTPCREL(%rip), %rdi
	leaq	L_.str.89(%rip), %rsi
	callq	__ZNSt3__1lsINS_11char_traitsIcEEEERNS_13basic_ostreamIcT_EES6_PKc
Ltmp465:
	movq	%rax, -912(%rbp)        ## 8-byte Spill
	jmp	LBB71_27
LBB71_27:
	movq	-768(%rbp), %rsi
Ltmp466:
	movq	-912(%rbp), %rdi        ## 8-byte Reload
	callq	__ZNSt3__1lsIcNS_11char_traitsIcEENS_9allocatorIcEEEERNS_13basic_ostreamIT_T0_EES9_RKNS_12basic_stringIS6_S7_T1_EE
Ltmp467:
	movq	%rax, -920(%rbp)        ## 8-byte Spill
	jmp	LBB71_28
LBB71_28:
Ltmp468:
	leaq	L_.str.90(%rip), %rsi
	movq	-920(%rbp), %rdi        ## 8-byte Reload
	callq	__ZNSt3__1lsINS_11char_traitsIcEEEERNS_13basic_ostreamIcT_EES6_PKc
Ltmp469:
	jmp	LBB71_29
LBB71_29:
	movq	-584(%rbp), %rdi
	movq	-768(%rbp), %rsi
Ltmp470:
	callq	__Z28download_and_extract_libraryRKNSt3__14__fs10filesystem4pathERK17ThirdPartyLibrary
Ltmp471:
	movb	%al, -921(%rbp)         ## 1-byte Spill
	jmp	LBB71_30
LBB71_30:
	movb	-921(%rbp), %al         ## 1-byte Reload
	testb	$1, %al
	jne	LBB71_32
	jmp	LBB71_31
LBB71_31:
	movl	$1, -756(%rbp)
	jmp	LBB71_53
LBB71_32:
	movq	-584(%rbp), %rdi
	movq	-768(%rbp), %rsi
Ltmp472:
	callq	__Z22generate_library_guideRKNSt3__14__fs10filesystem4pathERK17ThirdPartyLibrary
Ltmp473:
	jmp	LBB71_33
LBB71_33:
	movq	-584(%rbp), %rsi
Ltmp474:
	leaq	L_.str.91(%rip), %rax
	leaq	-816(%rbp), %rdi
	xorl	%edx, %edx
	movq	%rsi, -936(%rbp)        ## 8-byte Spill
	movq	%rax, %rsi
	callq	__ZNSt3__14__fs10filesystem4pathC1IA15_cvEERKT_NS2_6formatE
Ltmp475:
	jmp	LBB71_34
LBB71_34:
Ltmp476:
	leaq	-792(%rbp), %rdi
	leaq	-816(%rbp), %rdx
	movq	-936(%rbp), %rsi        ## 8-byte Reload
	callq	__ZNSt3__14__fs10filesystemdvERKNS1_4pathES4_
Ltmp477:
	jmp	LBB71_35
LBB71_35:
	leaq	-816(%rbp), %rdi
	callq	__ZNSt3__14__fs10filesystem4pathD1Ev
Ltmp479:
	leaq	-792(%rbp), %rdi
	callq	__ZNSt3__14__fs10filesystemL6existsERKNS1_4pathE
Ltmp480:
	movb	%al, -937(%rbp)         ## 1-byte Spill
	jmp	LBB71_36
LBB71_36:
	movb	-937(%rbp), %al         ## 1-byte Reload
	testb	$1, %al
	jne	LBB71_37
	jmp	LBB71_47
LBB71_37:
Ltmp481:
	leaq	-576(%rbp), %rdi
	leaq	-792(%rbp), %rsi
	movl	$1, %edx
	callq	__ZNSt3__114basic_ofstreamIcNS_11char_traitsIcEEEC1ERKNS_4__fs10filesystem4pathEj
Ltmp482:
	jmp	LBB71_38
LBB71_38:
Ltmp483:
	leaq	L_.str.92(%rip), %rsi
	leaq	-576(%rbp), %rdi
	callq	__ZNSt3__1lsINS_11char_traitsIcEEEERNS_13basic_ostreamIcT_EES6_PKc
Ltmp484:
	movq	%rax, -952(%rbp)        ## 8-byte Spill
	jmp	LBB71_39
LBB71_39:
	movq	-768(%rbp), %rsi
Ltmp485:
	movq	-952(%rbp), %rdi        ## 8-byte Reload
	callq	__ZNSt3__1lsIcNS_11char_traitsIcEENS_9allocatorIcEEEERNS_13basic_ostreamIT_T0_EES9_RKNS_12basic_stringIS6_S7_T1_EE
Ltmp486:
	movq	%rax, -960(%rbp)        ## 8-byte Spill
	jmp	LBB71_40
LBB71_40:
Ltmp487:
	leaq	L_.str.93(%rip), %rsi
	movq	-960(%rbp), %rdi        ## 8-byte Reload
	callq	__ZNSt3__1lsINS_11char_traitsIcEEEERNS_13basic_ostreamIcT_EES6_PKc
Ltmp488:
	jmp	LBB71_41
LBB71_41:
	movq	-768(%rbp), %rax
	addq	$120, %rax
Ltmp489:
	leaq	-576(%rbp), %rdi
	movq	%rax, %rsi
	callq	__ZNSt3__1lsIcNS_11char_traitsIcEENS_9allocatorIcEEEERNS_13basic_ostreamIT_T0_EES9_RKNS_12basic_stringIS6_S7_T1_EE
Ltmp490:
	movq	%rax, -968(%rbp)        ## 8-byte Spill
	jmp	LBB71_42
LBB71_42:
Ltmp491:
	leaq	L_.str.58(%rip), %rsi
	movq	-968(%rbp), %rdi        ## 8-byte Reload
	callq	__ZNSt3__1lsINS_11char_traitsIcEEEERNS_13basic_ostreamIcT_EES6_PKc
Ltmp492:
	jmp	LBB71_43
LBB71_43:
	leaq	-576(%rbp), %rdi
	callq	__ZNSt3__114basic_ofstreamIcNS_11char_traitsIcEEED1Ev
	jmp	LBB71_47
LBB71_44:
Ltmp478:
                                        ## kill: def $edx killed $edx killed $rdx
	movq	%rax, -688(%rbp)
	movl	%edx, -692(%rbp)
	leaq	-816(%rbp), %rdi
	callq	__ZNSt3__14__fs10filesystem4pathD1Ev
	jmp	LBB71_57
LBB71_45:
Ltmp504:
                                        ## kill: def $edx killed $edx killed $rdx
	movq	%rax, -688(%rbp)
	movl	%edx, -692(%rbp)
	jmp	LBB71_56
LBB71_46:
Ltmp493:
                                        ## kill: def $edx killed $edx killed $rdx
	movq	%rax, -688(%rbp)
	movl	%edx, -692(%rbp)
	leaq	-576(%rbp), %rdi
	callq	__ZNSt3__114basic_ofstreamIcNS_11char_traitsIcEEED1Ev
	jmp	LBB71_56
LBB71_47:
	movq	-768(%rbp), %rsi
Ltmp494:
	movq	__ZNSt3__14coutE@GOTPCREL(%rip), %rdi
	callq	__ZNSt3__1lsIcNS_11char_traitsIcEENS_9allocatorIcEEEERNS_13basic_ostreamIT_T0_EES9_RKNS_12basic_stringIS6_S7_T1_EE
Ltmp495:
	movq	%rax, -976(%rbp)        ## 8-byte Spill
	jmp	LBB71_48
LBB71_48:
Ltmp496:
	leaq	L_.str.94(%rip), %rsi
	movq	-976(%rbp), %rdi        ## 8-byte Reload
	callq	__ZNSt3__1lsINS_11char_traitsIcEEEERNS_13basic_ostreamIcT_EES6_PKc
Ltmp497:
	jmp	LBB71_49
LBB71_49:
Ltmp498:
	movq	__ZNSt3__14coutE@GOTPCREL(%rip), %rdi
	leaq	L_.str.95(%rip), %rsi
	callq	__ZNSt3__1lsINS_11char_traitsIcEEEERNS_13basic_ostreamIcT_EES6_PKc
Ltmp499:
	movq	%rax, -984(%rbp)        ## 8-byte Spill
	jmp	LBB71_50
LBB71_50:
	movq	-768(%rbp), %rsi
Ltmp500:
	movq	-984(%rbp), %rdi        ## 8-byte Reload
	callq	__ZNSt3__1lsIcNS_11char_traitsIcEENS_9allocatorIcEEEERNS_13basic_ostreamIT_T0_EES9_RKNS_12basic_stringIS6_S7_T1_EE
Ltmp501:
	movq	%rax, -992(%rbp)        ## 8-byte Spill
	jmp	LBB71_51
LBB71_51:
Ltmp502:
	leaq	L_.str.96(%rip), %rsi
	movq	-992(%rbp), %rdi        ## 8-byte Reload
	callq	__ZNSt3__1lsINS_11char_traitsIcEEEERNS_13basic_ostreamIcT_EES6_PKc
Ltmp503:
	jmp	LBB71_52
LBB71_52:
	leaq	-792(%rbp), %rdi
	callq	__ZNSt3__14__fs10filesystem4pathD1Ev
	movl	$0, -756(%rbp)
LBB71_53:
	leaq	-648(%rbp), %rdi
	callq	__ZNSt3__112basic_stringIcNS_11char_traitsIcEENS_9allocatorIcEEED1Ev
LBB71_54:
	movq	___stack_chk_guard@GOTPCREL(%rip), %rax
	movq	(%rax), %rax
	movq	-8(%rbp), %rcx
	cmpq	%rcx, %rax
	jne	LBB71_60
## %bb.55:
	addq	$992, %rsp              ## imm = 0x3E0
	popq	%rbp
	retq
LBB71_56:
	leaq	-792(%rbp), %rdi
	callq	__ZNSt3__14__fs10filesystem4pathD1Ev
LBB71_57:
	leaq	-648(%rbp), %rdi
	callq	__ZNSt3__112basic_stringIcNS_11char_traitsIcEENS_9allocatorIcEEED1Ev
## %bb.58:
	movq	-688(%rbp), %rdi
	callq	__Unwind_Resume
	ud2
## %bb.59:
	ud2
LBB71_60:
	callq	___stack_chk_fail
	ud2
Lfunc_end16:
	.cfi_endproc
	.section	__TEXT,__gcc_except_tab
	.p2align	2
GCC_except_table71:
Lexception16:
	.byte	255                     ## @LPStart Encoding = omit
	.byte	255                     ## @TType Encoding = omit
	.byte	1                       ## Call site Encoding = uleb128
	.uleb128 Lcst_end16-Lcst_begin16
Lcst_begin16:
	.uleb128 Lfunc_begin16-Lfunc_begin16 ## >> Call Site 1 <<
	.uleb128 Ltmp456-Lfunc_begin16  ##   Call between Lfunc_begin16 and Ltmp456
	.byte	0                       ##     has no landing pad
	.byte	0                       ##   On action: cleanup
	.uleb128 Ltmp456-Lfunc_begin16  ## >> Call Site 2 <<
	.uleb128 Ltmp475-Ltmp456        ##   Call between Ltmp456 and Ltmp475
	.uleb128 Ltmp525-Lfunc_begin16  ##     jumps to Ltmp525
	.byte	0                       ##   On action: cleanup
	.uleb128 Ltmp476-Lfunc_begin16  ## >> Call Site 3 <<
	.uleb128 Ltmp477-Ltmp476        ##   Call between Ltmp476 and Ltmp477
	.uleb128 Ltmp478-Lfunc_begin16  ##     jumps to Ltmp478
	.byte	0                       ##   On action: cleanup
	.uleb128 Ltmp479-Lfunc_begin16  ## >> Call Site 4 <<
	.uleb128 Ltmp482-Ltmp479        ##   Call between Ltmp479 and Ltmp482
	.uleb128 Ltmp504-Lfunc_begin16  ##     jumps to Ltmp504
	.byte	0                       ##   On action: cleanup
	.uleb128 Ltmp483-Lfunc_begin16  ## >> Call Site 5 <<
	.uleb128 Ltmp492-Ltmp483        ##   Call between Ltmp483 and Ltmp492
	.uleb128 Ltmp493-Lfunc_begin16  ##     jumps to Ltmp493
	.byte	0                       ##   On action: cleanup
	.uleb128 Ltmp494-Lfunc_begin16  ## >> Call Site 6 <<
	.uleb128 Ltmp503-Ltmp494        ##   Call between Ltmp494 and Ltmp503
	.uleb128 Ltmp504-Lfunc_begin16  ##     jumps to Ltmp504
	.byte	0                       ##   On action: cleanup
	.uleb128 Ltmp503-Lfunc_begin16  ## >> Call Site 7 <<
	.uleb128 Lfunc_end16-Ltmp503    ##   Call between Ltmp503 and Lfunc_end16
	.byte	0                       ##     has no landing pad
	.byte	0                       ##   On action: cleanup
Lcst_end16:
	.p2align	2
                                        ## -- End function
	.section	__TEXT,__text,regular,pure_instructions
	.p2align	4, 0x90         ## -- Begin function _ZNSt3__13setINS_12basic_stringIcNS_11char_traitsIcEENS_9allocatorIcEEEENS_4lessIS6_EENS4_IS6_EEEC1Ev
__ZNSt3__13setINS_12basic_stringIcNS_11char_traitsIcEENS_9allocatorIcEEEENS_4lessIS6_EENS4_IS6_EEEC1Ev: ## @_ZNSt3__13setINS_12basic_stringIcNS_11char_traitsIcEENS_9allocatorIcEEEENS_4lessIS6_EENS4_IS6_EEEC1Ev
	.cfi_startproc
## %bb.0:
	pushq	%rbp
	.cfi_def_cfa_offset 16
	.cfi_offset %rbp, -16
	movq	%rsp, %rbp
	.cfi_def_cfa_register %rbp
	subq	$16, %rsp
	movq	%rdi, -8(%rbp)
	movq	-8(%rbp), %rdi
	callq	__ZNSt3__13setINS_12basic_stringIcNS_11char_traitsIcEENS_9allocatorIcEEEENS_4lessIS6_EENS4_IS6_EEEC2Ev
	addq	$16, %rsp
	popq	%rbp
	retq
	.cfi_endproc
                                        ## -- End function
	.p2align	4, 0x90         ## -- Begin function _ZNSt3__13setINS_12basic_stringIcNS_11char_traitsIcEENS_9allocatorIcEEEENS_4lessIS6_EENS4_IS6_EEED1Ev
__ZNSt3__13setINS_12basic_stringIcNS_11char_traitsIcEENS_9allocatorIcEEEENS_4lessIS6_EENS4_IS6_EEED1Ev: ## @_ZNSt3__13setINS_12basic_stringIcNS_11char_traitsIcEENS_9allocatorIcEEEENS_4lessIS6_EENS4_IS6_EEED1Ev
	.cfi_startproc
## %bb.0:
	pushq	%rbp
	.cfi_def_cfa_offset 16
	.cfi_offset %rbp, -16
	movq	%rsp, %rbp
	.cfi_def_cfa_register %rbp
	subq	$16, %rsp
	movq	%rdi, -8(%rbp)
	movq	-8(%rbp), %rdi
	callq	__ZNSt3__13setINS_12basic_stringIcNS_11char_traitsIcEENS_9allocatorIcEEEENS_4lessIS6_EENS4_IS6_EEED2Ev
	addq	$16, %rsp
	popq	%rbp
	retq
	.cfi_endproc
                                        ## -- End function
	.p2align	4, 0x90         ## -- Begin function _ZNSt3__1neERKNS_21__tree_const_iteratorINS_12basic_stringIcNS_11char_traitsIcEENS_9allocatorIcEEEEPNS_11__tree_nodeIS6_PvEElEESD_
__ZNSt3__1neERKNS_21__tree_const_iteratorINS_12basic_stringIcNS_11char_traitsIcEENS_9allocatorIcEEEEPNS_11__tree_nodeIS6_PvEElEESD_: ## @_ZNSt3__1neERKNS_21__tree_const_iteratorINS_12basic_stringIcNS_11char_traitsIcEENS_9allocatorIcEEEEPNS_11__tree_nodeIS6_PvEElEESD_
	.cfi_startproc
## %bb.0:
	pushq	%rbp
	.cfi_def_cfa_offset 16
	.cfi_offset %rbp, -16
	movq	%rsp, %rbp
	.cfi_def_cfa_register %rbp
	subq	$16, %rsp
	movq	%rdi, -8(%rbp)
	movq	%rsi, -16(%rbp)
	movq	-8(%rbp), %rdi
	movq	-16(%rbp), %rsi
	callq	__ZNSt3__1eqERKNS_21__tree_const_iteratorINS_12basic_stringIcNS_11char_traitsIcEENS_9allocatorIcEEEEPNS_11__tree_nodeIS6_PvEElEESD_
	xorb	$-1, %al
	andb	$1, %al
	movzbl	%al, %eax
	addq	$16, %rsp
	popq	%rbp
	retq
	.cfi_endproc
                                        ## -- End function
	.p2align	4, 0x90         ## -- Begin function _ZNSt3__13setINS_12basic_stringIcNS_11char_traitsIcEENS_9allocatorIcEEEENS_4lessIS6_EENS4_IS6_EEE4findERKS6_
__ZNSt3__13setINS_12basic_stringIcNS_11char_traitsIcEENS_9allocatorIcEEEENS_4lessIS6_EENS4_IS6_EEE4findERKS6_: ## @_ZNSt3__13setINS_12basic_stringIcNS_11char_traitsIcEENS_9allocatorIcEEEENS_4lessIS6_EENS4_IS6_EEE4findERKS6_
	.cfi_startproc
## %bb.0:
	pushq	%rbp
	.cfi_def_cfa_offset 16
	.cfi_offset %rbp, -16
	movq	%rsp, %rbp
	.cfi_def_cfa_register %rbp
	subq	$32, %rsp
	movq	%rdi, -16(%rbp)
	movq	%rsi, -24(%rbp)
	movq	-16(%rbp), %rdi
	movq	-24(%rbp), %rsi
	callq	__ZNSt3__16__treeINS_12basic_stringIcNS_11char_traitsIcEENS_9allocatorIcEEEENS_4lessIS6_EENS4_IS6_EEE4findIS6_EENS_15__tree_iteratorIS6_PNS_11__tree_nodeIS6_PvEElEERKT_
	movq	%rax, -32(%rbp)
	movq	-32(%rbp), %rsi
	leaq	-8(%rbp), %rdi
	callq	__ZNSt3__121__tree_const_iteratorINS_12basic_stringIcNS_11char_traitsIcEENS_9allocatorIcEEEEPNS_11__tree_nodeIS6_PvEElEC1ENS_15__tree_iteratorIS6_SA_lEE
	movq	-8(%rbp), %rax
	addq	$32, %rsp
	popq	%rbp
	retq
	.cfi_endproc
                                        ## -- End function
	.p2align	4, 0x90         ## -- Begin function _ZNSt3__13setINS_12basic_stringIcNS_11char_traitsIcEENS_9allocatorIcEEEENS_4lessIS6_EENS4_IS6_EEE3endEv
__ZNSt3__13setINS_12basic_stringIcNS_11char_traitsIcEENS_9allocatorIcEEEENS_4lessIS6_EENS4_IS6_EEE3endEv: ## @_ZNSt3__13setINS_12basic_stringIcNS_11char_traitsIcEENS_9allocatorIcEEEENS_4lessIS6_EENS4_IS6_EEE3endEv
	.cfi_startproc
## %bb.0:
	pushq	%rbp
	.cfi_def_cfa_offset 16
	.cfi_offset %rbp, -16
	movq	%rsp, %rbp
	.cfi_def_cfa_register %rbp
	subq	$32, %rsp
	movq	%rdi, -16(%rbp)
	movq	-16(%rbp), %rdi
	callq	__ZNSt3__16__treeINS_12basic_stringIcNS_11char_traitsIcEENS_9allocatorIcEEEENS_4lessIS6_EENS4_IS6_EEE3endEv
	movq	%rax, -24(%rbp)
	movq	-24(%rbp), %rsi
	leaq	-8(%rbp), %rdi
	callq	__ZNSt3__121__tree_const_iteratorINS_12basic_stringIcNS_11char_traitsIcEENS_9allocatorIcEEEEPNS_11__tree_nodeIS6_PvEElEC1ENS_15__tree_iteratorIS6_SA_lEE
	movq	-8(%rbp), %rax
	addq	$32, %rsp
	popq	%rbp
	retq
	.cfi_endproc
                                        ## -- End function
	.p2align	4, 0x90         ## -- Begin function _ZNSt3__13setINS_12basic_stringIcNS_11char_traitsIcEENS_9allocatorIcEEEENS_4lessIS6_EENS4_IS6_EEE6insertERKS6_
__ZNSt3__13setINS_12basic_stringIcNS_11char_traitsIcEENS_9allocatorIcEEEENS_4lessIS6_EENS4_IS6_EEE6insertERKS6_: ## @_ZNSt3__13setINS_12basic_stringIcNS_11char_traitsIcEENS_9allocatorIcEEEENS_4lessIS6_EENS4_IS6_EEE6insertERKS6_
	.cfi_startproc
## %bb.0:
	pushq	%rbp
	.cfi_def_cfa_offset 16
	.cfi_offset %rbp, -16
	movq	%rsp, %rbp
	.cfi_def_cfa_register %rbp
	subq	$48, %rsp
	movq	%rdi, -24(%rbp)
	movq	%rsi, -32(%rbp)
	movq	-24(%rbp), %rdi
	movq	-32(%rbp), %rsi
	callq	__ZNSt3__16__treeINS_12basic_stringIcNS_11char_traitsIcEENS_9allocatorIcEEEENS_4lessIS6_EENS4_IS6_EEE15__insert_uniqueERKS6_
	movq	%rax, -48(%rbp)
	movb	%dl, -40(%rbp)
	leaq	-16(%rbp), %rdi
	leaq	-48(%rbp), %rsi
	callq	__ZNSt3__14pairINS_21__tree_const_iteratorINS_12basic_stringIcNS_11char_traitsIcEENS_9allocatorIcEEEEPNS_11__tree_nodeIS7_PvEElEEbEC1INS_15__tree_iteratorIS7_SB_lEEbLb0EEEONS0_IT_T0_EE
	movq	-16(%rbp), %rax
	movb	-8(%rbp), %dl
	addq	$48, %rsp
	popq	%rbp
	retq
	.cfi_endproc
                                        ## -- End function
	.p2align	4, 0x90         ## -- Begin function _ZNSt3__1L9transformINS_11__wrap_iterIPcEES3_Z23add_third_party_libraryRKNS_4__fs10filesystem4pathERKNS_12basic_stringIcNS_11char_traitsIcEENS_9allocatorIcEEEEE3$_2EET0_T_SJ_SI_T1_
__ZNSt3__1L9transformINS_11__wrap_iterIPcEES3_Z23add_third_party_libraryRKNS_4__fs10filesystem4pathERKNS_12basic_stringIcNS_11char_traitsIcEENS_9allocatorIcEEEEE3$_2EET0_T_SJ_SI_T1_: ## @"_ZNSt3__1L9transformINS_11__wrap_iterIPcEES3_Z23add_third_party_libraryRKNS_4__fs10filesystem4pathERKNS_12basic_stringIcNS_11char_traitsIcEENS_9allocatorIcEEEEE3$_2EET0_T_SJ_SI_T1_"
	.cfi_startproc
## %bb.0:
	pushq	%rbp
	.cfi_def_cfa_offset 16
	.cfi_offset %rbp, -16
	movq	%rsp, %rbp
	.cfi_def_cfa_register %rbp
	subq	$64, %rsp
	movq	%rdi, -16(%rbp)
	movq	%rsi, -24(%rbp)
	movq	%rdx, -32(%rbp)
LBB78_1:                                ## =>This Inner Loop Header: Depth=1
	leaq	-16(%rbp), %rdi
	leaq	-24(%rbp), %rsi
	callq	__ZNSt3__1neIPcEEbRKNS_11__wrap_iterIT_EES6_
	testb	$1, %al
	jne	LBB78_2
	jmp	LBB78_4
LBB78_2:                                ##   in Loop: Header=BB78_1 Depth=1
	leaq	-16(%rbp), %rdi
	callq	__ZNKSt3__111__wrap_iterIPcEdeEv
	leaq	-40(%rbp), %rdi
	movzbl	(%rax), %esi
	callq	__ZZ23add_third_party_libraryRKNSt3__14__fs10filesystem4pathERKNS_12basic_stringIcNS_11char_traitsIcEENS_9allocatorIcEEEEENK3$_2clEh
                                        ## kill: def $al killed $al killed $eax
	leaq	-32(%rbp), %rdi
	movb	%al, -41(%rbp)          ## 1-byte Spill
	callq	__ZNKSt3__111__wrap_iterIPcEdeEv
	movb	-41(%rbp), %cl          ## 1-byte Reload
	movb	%cl, (%rax)
## %bb.3:                               ##   in Loop: Header=BB78_1 Depth=1
	leaq	-16(%rbp), %rdi
	callq	__ZNSt3__111__wrap_iterIPcEppEv
	leaq	-32(%rbp), %rdi
	movq	%rax, -56(%rbp)         ## 8-byte Spill
	callq	__ZNSt3__111__wrap_iterIPcEppEv
	jmp	LBB78_1
LBB78_4:
	movq	-32(%rbp), %rax
	movq	%rax, -8(%rbp)
	movq	-8(%rbp), %rax
	addq	$64, %rsp
	popq	%rbp
	retq
	.cfi_endproc
                                        ## -- End function
	.p2align	4, 0x90         ## -- Begin function _ZNSt3__113unordered_mapINS_12basic_stringIcNS_11char_traitsIcEENS_9allocatorIcEEEE17ThirdPartyLibraryNS_4hashIS6_EENS_8equal_toIS6_EENS4_INS_4pairIKS6_S7_EEEEE4findERSD_
__ZNSt3__113unordered_mapINS_12basic_stringIcNS_11char_traitsIcEENS_9allocatorIcEEEE17ThirdPartyLibraryNS_4hashIS6_EENS_8equal_toIS6_EENS4_INS_4pairIKS6_S7_EEEEE4findERSD_: ## @_ZNSt3__113unordered_mapINS_12basic_stringIcNS_11char_traitsIcEENS_9allocatorIcEEEE17ThirdPartyLibraryNS_4hashIS6_EENS_8equal_toIS6_EENS4_INS_4pairIKS6_S7_EEEEE4findERSD_
	.cfi_startproc
## %bb.0:
	pushq	%rbp
	.cfi_def_cfa_offset 16
	.cfi_offset %rbp, -16
	movq	%rsp, %rbp
	.cfi_def_cfa_register %rbp
	subq	$32, %rsp
	movq	%rdi, -16(%rbp)
	movq	%rsi, -24(%rbp)
	movq	-16(%rbp), %rdi
	movq	-24(%rbp), %rsi
	callq	__ZNSt3__112__hash_tableINS_17__hash_value_typeINS_12basic_stringIcNS_11char_traitsIcEENS_9allocatorIcEEEE17ThirdPartyLibraryEENS_22__unordered_map_hasherIS7_S9_NS_4hashIS7_EELb1EEENS_21__unordered_map_equalIS7_S9_NS_8equal_toIS7_EELb1EEENS5_IS9_EEE4findIS7_EENS_15__hash_iteratorIPNS_11__hash_nodeIS9_PvEEEERKT_
	movq	%rax, -32(%rbp)
	movq	-32(%rbp), %rsi
	leaq	-8(%rbp), %rdi
	callq	__ZNSt3__119__hash_map_iteratorINS_15__hash_iteratorIPNS_11__hash_nodeINS_17__hash_value_typeINS_12basic_stringIcNS_11char_traitsIcEENS_9allocatorIcEEEE17ThirdPartyLibraryEEPvEEEEEC1ESF_
	movq	-8(%rbp), %rax
	addq	$32, %rsp
	popq	%rbp
	retq
	.cfi_endproc
                                        ## -- End function
	.p2align	4, 0x90         ## -- Begin function _ZNSt3__1eqERKNS_19__hash_map_iteratorINS_15__hash_iteratorIPNS_11__hash_nodeINS_17__hash_value_typeINS_12basic_stringIcNS_11char_traitsIcEENS_9allocatorIcEEEE17ThirdPartyLibraryEEPvEEEEEESI_
__ZNSt3__1eqERKNS_19__hash_map_iteratorINS_15__hash_iteratorIPNS_11__hash_nodeINS_17__hash_value_typeINS_12basic_stringIcNS_11char_traitsIcEENS_9allocatorIcEEEE17ThirdPartyLibraryEEPvEEEEEESI_: ## @_ZNSt3__1eqERKNS_19__hash_map_iteratorINS_15__hash_iteratorIPNS_11__hash_nodeINS_17__hash_value_typeINS_12basic_stringIcNS_11char_traitsIcEENS_9allocatorIcEEEE17ThirdPartyLibraryEEPvEEEEEESI_
	.cfi_startproc
## %bb.0:
	pushq	%rbp
	.cfi_def_cfa_offset 16
	.cfi_offset %rbp, -16
	movq	%rsp, %rbp
	.cfi_def_cfa_register %rbp
	subq	$16, %rsp
	movq	%rdi, -8(%rbp)
	movq	%rsi, -16(%rbp)
	movq	-8(%rbp), %rdi
	movq	-16(%rbp), %rsi
	callq	__ZNSt3__1eqERKNS_15__hash_iteratorIPNS_11__hash_nodeINS_17__hash_value_typeINS_12basic_stringIcNS_11char_traitsIcEENS_9allocatorIcEEEE17ThirdPartyLibraryEEPvEEEESG_
	andb	$1, %al
	movzbl	%al, %eax
	addq	$16, %rsp
	popq	%rbp
	retq
	.cfi_endproc
                                        ## -- End function
	.p2align	4, 0x90         ## -- Begin function _ZNSt3__113unordered_mapINS_12basic_stringIcNS_11char_traitsIcEENS_9allocatorIcEEEE17ThirdPartyLibraryNS_4hashIS6_EENS_8equal_toIS6_EENS4_INS_4pairIKS6_S7_EEEEE3endEv
__ZNSt3__113unordered_mapINS_12basic_stringIcNS_11char_traitsIcEENS_9allocatorIcEEEE17ThirdPartyLibraryNS_4hashIS6_EENS_8equal_toIS6_EENS4_INS_4pairIKS6_S7_EEEEE3endEv: ## @_ZNSt3__113unordered_mapINS_12basic_stringIcNS_11char_traitsIcEENS_9allocatorIcEEEE17ThirdPartyLibraryNS_4hashIS6_EENS_8equal_toIS6_EENS4_INS_4pairIKS6_S7_EEEEE3endEv
	.cfi_startproc
## %bb.0:
	pushq	%rbp
	.cfi_def_cfa_offset 16
	.cfi_offset %rbp, -16
	movq	%rsp, %rbp
	.cfi_def_cfa_register %rbp
	subq	$32, %rsp
	movq	%rdi, -16(%rbp)
	movq	-16(%rbp), %rdi
	callq	__ZNSt3__112__hash_tableINS_17__hash_value_typeINS_12basic_stringIcNS_11char_traitsIcEENS_9allocatorIcEEEE17ThirdPartyLibraryEENS_22__unordered_map_hasherIS7_S9_NS_4hashIS7_EELb1EEENS_21__unordered_map_equalIS7_S9_NS_8equal_toIS7_EELb1EEENS5_IS9_EEE3endEv
	movq	%rax, -24(%rbp)
	movq	-24(%rbp), %rsi
	leaq	-8(%rbp), %rdi
	callq	__ZNSt3__119__hash_map_iteratorINS_15__hash_iteratorIPNS_11__hash_nodeINS_17__hash_value_typeINS_12basic_stringIcNS_11char_traitsIcEENS_9allocatorIcEEEE17ThirdPartyLibraryEEPvEEEEEC1ESF_
	movq	-8(%rbp), %rax
	addq	$32, %rsp
	popq	%rbp
	retq
	.cfi_endproc
                                        ## -- End function
	.p2align	4, 0x90         ## -- Begin function _ZNSt3__113unordered_mapINS_12basic_stringIcNS_11char_traitsIcEENS_9allocatorIcEEEE17ThirdPartyLibraryNS_4hashIS6_EENS_8equal_toIS6_EENS4_INS_4pairIKS6_S7_EEEEE5beginEv
__ZNSt3__113unordered_mapINS_12basic_stringIcNS_11char_traitsIcEENS_9allocatorIcEEEE17ThirdPartyLibraryNS_4hashIS6_EENS_8equal_toIS6_EENS4_INS_4pairIKS6_S7_EEEEE5beginEv: ## @_ZNSt3__113unordered_mapINS_12basic_stringIcNS_11char_traitsIcEENS_9allocatorIcEEEE17ThirdPartyLibraryNS_4hashIS6_EENS_8equal_toIS6_EENS4_INS_4pairIKS6_S7_EEEEE5beginEv
	.cfi_startproc
## %bb.0:
	pushq	%rbp
	.cfi_def_cfa_offset 16
	.cfi_offset %rbp, -16
	movq	%rsp, %rbp
	.cfi_def_cfa_register %rbp
	subq	$32, %rsp
	movq	%rdi, -16(%rbp)
	movq	-16(%rbp), %rdi
	callq	__ZNSt3__112__hash_tableINS_17__hash_value_typeINS_12basic_stringIcNS_11char_traitsIcEENS_9allocatorIcEEEE17ThirdPartyLibraryEENS_22__unordered_map_hasherIS7_S9_NS_4hashIS7_EELb1EEENS_21__unordered_map_equalIS7_S9_NS_8equal_toIS7_EELb1EEENS5_IS9_EEE5beginEv
	movq	%rax, -24(%rbp)
	movq	-24(%rbp), %rsi
	leaq	-8(%rbp), %rdi
	callq	__ZNSt3__119__hash_map_iteratorINS_15__hash_iteratorIPNS_11__hash_nodeINS_17__hash_value_typeINS_12basic_stringIcNS_11char_traitsIcEENS_9allocatorIcEEEE17ThirdPartyLibraryEEPvEEEEEC1ESF_
	movq	-8(%rbp), %rax
	addq	$32, %rsp
	popq	%rbp
	retq
	.cfi_endproc
                                        ## -- End function
	.p2align	4, 0x90         ## -- Begin function _ZNSt3__1neERKNS_19__hash_map_iteratorINS_15__hash_iteratorIPNS_11__hash_nodeINS_17__hash_value_typeINS_12basic_stringIcNS_11char_traitsIcEENS_9allocatorIcEEEE17ThirdPartyLibraryEEPvEEEEEESI_
__ZNSt3__1neERKNS_19__hash_map_iteratorINS_15__hash_iteratorIPNS_11__hash_nodeINS_17__hash_value_typeINS_12basic_stringIcNS_11char_traitsIcEENS_9allocatorIcEEEE17ThirdPartyLibraryEEPvEEEEEESI_: ## @_ZNSt3__1neERKNS_19__hash_map_iteratorINS_15__hash_iteratorIPNS_11__hash_nodeINS_17__hash_value_typeINS_12basic_stringIcNS_11char_traitsIcEENS_9allocatorIcEEEE17ThirdPartyLibraryEEPvEEEEEESI_
	.cfi_startproc
## %bb.0:
	pushq	%rbp
	.cfi_def_cfa_offset 16
	.cfi_offset %rbp, -16
	movq	%rsp, %rbp
	.cfi_def_cfa_register %rbp
	subq	$16, %rsp
	movq	%rdi, -8(%rbp)
	movq	%rsi, -16(%rbp)
	movq	-8(%rbp), %rdi
	movq	-16(%rbp), %rsi
	callq	__ZNSt3__1neERKNS_15__hash_iteratorIPNS_11__hash_nodeINS_17__hash_value_typeINS_12basic_stringIcNS_11char_traitsIcEENS_9allocatorIcEEEE17ThirdPartyLibraryEEPvEEEESG_
	andb	$1, %al
	movzbl	%al, %eax
	addq	$16, %rsp
	popq	%rbp
	retq
	.cfi_endproc
                                        ## -- End function
	.p2align	4, 0x90         ## -- Begin function _ZNKSt3__119__hash_map_iteratorINS_15__hash_iteratorIPNS_11__hash_nodeINS_17__hash_value_typeINS_12basic_stringIcNS_11char_traitsIcEENS_9allocatorIcEEEE17ThirdPartyLibraryEEPvEEEEEdeEv
__ZNKSt3__119__hash_map_iteratorINS_15__hash_iteratorIPNS_11__hash_nodeINS_17__hash_value_typeINS_12basic_stringIcNS_11char_traitsIcEENS_9allocatorIcEEEE17ThirdPartyLibraryEEPvEEEEEdeEv: ## @_ZNKSt3__119__hash_map_iteratorINS_15__hash_iteratorIPNS_11__hash_nodeINS_17__hash_value_typeINS_12basic_stringIcNS_11char_traitsIcEENS_9allocatorIcEEEE17ThirdPartyLibraryEEPvEEEEEdeEv
	.cfi_startproc
## %bb.0:
	pushq	%rbp
	.cfi_def_cfa_offset 16
	.cfi_offset %rbp, -16
	movq	%rsp, %rbp
	.cfi_def_cfa_register %rbp
	subq	$16, %rsp
	movq	%rdi, -8(%rbp)
	movq	-8(%rbp), %rdi
	callq	__ZNKSt3__115__hash_iteratorIPNS_11__hash_nodeINS_17__hash_value_typeINS_12basic_stringIcNS_11char_traitsIcEENS_9allocatorIcEEEE17ThirdPartyLibraryEEPvEEEptEv
	movq	%rax, %rdi
	callq	__ZNSt3__117__hash_value_typeINS_12basic_stringIcNS_11char_traitsIcEENS_9allocatorIcEEEE17ThirdPartyLibraryE11__get_valueEv
	addq	$16, %rsp
	popq	%rbp
	retq
	.cfi_endproc
                                        ## -- End function
	.p2align	4, 0x90         ## -- Begin function _ZNSt3__119__hash_map_iteratorINS_15__hash_iteratorIPNS_11__hash_nodeINS_17__hash_value_typeINS_12basic_stringIcNS_11char_traitsIcEENS_9allocatorIcEEEE17ThirdPartyLibraryEEPvEEEEEppEv
__ZNSt3__119__hash_map_iteratorINS_15__hash_iteratorIPNS_11__hash_nodeINS_17__hash_value_typeINS_12basic_stringIcNS_11char_traitsIcEENS_9allocatorIcEEEE17ThirdPartyLibraryEEPvEEEEEppEv: ## @_ZNSt3__119__hash_map_iteratorINS_15__hash_iteratorIPNS_11__hash_nodeINS_17__hash_value_typeINS_12basic_stringIcNS_11char_traitsIcEENS_9allocatorIcEEEE17ThirdPartyLibraryEEPvEEEEEppEv
	.cfi_startproc
## %bb.0:
	pushq	%rbp
	.cfi_def_cfa_offset 16
	.cfi_offset %rbp, -16
	movq	%rsp, %rbp
	.cfi_def_cfa_register %rbp
	subq	$32, %rsp
	movq	%rdi, -8(%rbp)
	movq	-8(%rbp), %rax
	movq	%rax, %rdi
	movq	%rax, -16(%rbp)         ## 8-byte Spill
	callq	__ZNSt3__115__hash_iteratorIPNS_11__hash_nodeINS_17__hash_value_typeINS_12basic_stringIcNS_11char_traitsIcEENS_9allocatorIcEEEE17ThirdPartyLibraryEEPvEEEppEv
	movq	-16(%rbp), %rcx         ## 8-byte Reload
	movq	%rax, -24(%rbp)         ## 8-byte Spill
	movq	%rcx, %rax
	addq	$32, %rsp
	popq	%rbp
	retq
	.cfi_endproc
                                        ## -- End function
	.p2align	4, 0x90         ## -- Begin function _ZNKSt3__119__hash_map_iteratorINS_15__hash_iteratorIPNS_11__hash_nodeINS_17__hash_value_typeINS_12basic_stringIcNS_11char_traitsIcEENS_9allocatorIcEEEE17ThirdPartyLibraryEEPvEEEEEptEv
__ZNKSt3__119__hash_map_iteratorINS_15__hash_iteratorIPNS_11__hash_nodeINS_17__hash_value_typeINS_12basic_stringIcNS_11char_traitsIcEENS_9allocatorIcEEEE17ThirdPartyLibraryEEPvEEEEEptEv: ## @_ZNKSt3__119__hash_map_iteratorINS_15__hash_iteratorIPNS_11__hash_nodeINS_17__hash_value_typeINS_12basic_stringIcNS_11char_traitsIcEENS_9allocatorIcEEEE17ThirdPartyLibraryEEPvEEEEEptEv
	.cfi_startproc
## %bb.0:
	pushq	%rbp
	.cfi_def_cfa_offset 16
	.cfi_offset %rbp, -16
	movq	%rsp, %rbp
	.cfi_def_cfa_register %rbp
	subq	$16, %rsp
	movq	%rdi, -8(%rbp)
	movq	-8(%rbp), %rdi
	callq	__ZNKSt3__115__hash_iteratorIPNS_11__hash_nodeINS_17__hash_value_typeINS_12basic_stringIcNS_11char_traitsIcEENS_9allocatorIcEEEE17ThirdPartyLibraryEEPvEEEptEv
	movq	%rax, %rdi
	callq	__ZNSt3__117__hash_value_typeINS_12basic_stringIcNS_11char_traitsIcEENS_9allocatorIcEEEE17ThirdPartyLibraryE11__get_valueEv
	movq	%rax, %rdi
	callq	__ZNSt3__114pointer_traitsIPNS_4pairIKNS_12basic_stringIcNS_11char_traitsIcEENS_9allocatorIcEEEE17ThirdPartyLibraryEEE10pointer_toERSA_
	addq	$16, %rsp
	popq	%rbp
	retq
	.cfi_endproc
                                        ## -- End function
	.globl	__ZNSt3__14__fs10filesystem4pathC1IA15_cvEERKT_NS2_6formatE ## -- Begin function _ZNSt3__14__fs10filesystem4pathC1IA15_cvEERKT_NS2_6formatE
	.weak_def_can_be_hidden	__ZNSt3__14__fs10filesystem4pathC1IA15_cvEERKT_NS2_6formatE
	.p2align	4, 0x90
__ZNSt3__14__fs10filesystem4pathC1IA15_cvEERKT_NS2_6formatE: ## @_ZNSt3__14__fs10filesystem4pathC1IA15_cvEERKT_NS2_6formatE
	.cfi_startproc
## %bb.0:
	pushq	%rbp
	.cfi_def_cfa_offset 16
	.cfi_offset %rbp, -16
	movq	%rsp, %rbp
	.cfi_def_cfa_register %rbp
	subq	$32, %rsp
                                        ## kill: def $dl killed $dl killed $edx
	movq	%rdi, -8(%rbp)
	movq	%rsi, -16(%rbp)
	movb	%dl, -17(%rbp)
	movq	-8(%rbp), %rdi
	movq	-16(%rbp), %rsi
	movzbl	-17(%rbp), %edx
	callq	__ZNSt3__14__fs10filesystem4pathC2IA15_cvEERKT_NS2_6formatE
	addq	$32, %rsp
	popq	%rbp
	retq
	.cfi_endproc
                                        ## -- End function
	.globl	__Z17install_librariesRKNSt3__14__fs10filesystem4pathERKNS_6vectorINS_12basic_stringIcNS_11char_traitsIcEENS_9allocatorIcEEEENS9_ISB_EEEE ## -- Begin function _Z17install_librariesRKNSt3__14__fs10filesystem4pathERKNS_6vectorINS_12basic_stringIcNS_11char_traitsIcEENS_9allocatorIcEEEENS9_ISB_EEEE
	.p2align	4, 0x90
__Z17install_librariesRKNSt3__14__fs10filesystem4pathERKNS_6vectorINS_12basic_stringIcNS_11char_traitsIcEENS_9allocatorIcEEEENS9_ISB_EEEE: ## @_Z17install_librariesRKNSt3__14__fs10filesystem4pathERKNS_6vectorINS_12basic_stringIcNS_11char_traitsIcEENS_9allocatorIcEEEENS9_ISB_EEEE
Lfunc_begin17:
	.cfi_startproc
	.cfi_personality 155, ___gxx_personality_v0
	.cfi_lsda 16, Lexception17
## %bb.0:
	pushq	%rbp
	.cfi_def_cfa_offset 16
	.cfi_offset %rbp, -16
	movq	%rsp, %rbp
	.cfi_def_cfa_register %rbp
	subq	$112, %rsp
	movq	%rdi, -8(%rbp)
	movq	%rsi, -16(%rbp)
	movq	-16(%rbp), %rax
	movq	%rax, -24(%rbp)
	movq	-24(%rbp), %rdi
	callq	__ZNKSt3__16vectorINS_12basic_stringIcNS_11char_traitsIcEENS_9allocatorIcEEEENS4_IS6_EEE5beginEv
	movq	%rax, -32(%rbp)
	movq	-24(%rbp), %rdi
	callq	__ZNKSt3__16vectorINS_12basic_stringIcNS_11char_traitsIcEENS_9allocatorIcEEEENS4_IS6_EEE3endEv
	movq	%rax, -40(%rbp)
LBB88_1:                                ## =>This Inner Loop Header: Depth=1
	leaq	-32(%rbp), %rdi
	leaq	-40(%rbp), %rsi
	callq	__ZNSt3__1neIPKNS_12basic_stringIcNS_11char_traitsIcEENS_9allocatorIcEEEEEEbRKNS_11__wrap_iterIT_EESD_
	testb	$1, %al
	jne	LBB88_2
	jmp	LBB88_16
LBB88_2:                                ##   in Loop: Header=BB88_1 Depth=1
	leaq	-32(%rbp), %rdi
	callq	__ZNKSt3__111__wrap_iterIPKNS_12basic_stringIcNS_11char_traitsIcEENS_9allocatorIcEEEEEdeEv
	movq	%rax, -48(%rbp)
	movq	-8(%rbp), %rdi
	movq	-48(%rbp), %rsi
	callq	__Z23add_third_party_libraryRKNSt3__14__fs10filesystem4pathERKNS_12basic_stringIcNS_11char_traitsIcEENS_9allocatorIcEEEE
	movq	-8(%rbp), %rdi
	movq	-48(%rbp), %rsi
Ltmp526:
	callq	__Z23add_third_party_libraryRKNSt3__14__fs10filesystem4pathERKNS_12basic_stringIcNS_11char_traitsIcEENS_9allocatorIcEEEE
Ltmp527:
	jmp	LBB88_3
LBB88_3:                                ##   in Loop: Header=BB88_1 Depth=1
	jmp	LBB88_12
LBB88_4:                                ##   in Loop: Header=BB88_1 Depth=1
Ltmp528:
                                        ## kill: def $edx killed $edx killed $rdx
	movq	%rax, -56(%rbp)
	movl	%edx, -60(%rbp)
## %bb.5:                               ##   in Loop: Header=BB88_1 Depth=1
	movl	-60(%rbp), %eax
	movl	$1, %ecx
	cmpl	%ecx, %eax
	jne	LBB88_17
## %bb.6:                               ##   in Loop: Header=BB88_1 Depth=1
	movq	-56(%rbp), %rdi
	callq	___cxa_begin_catch
	movq	%rax, -72(%rbp)
Ltmp529:
	movq	__ZNSt3__14cerrE@GOTPCREL(%rip), %rdi
	leaq	L_.str.97(%rip), %rsi
	callq	__ZNSt3__1lsINS_11char_traitsIcEEEERNS_13basic_ostreamIcT_EES6_PKc
Ltmp530:
	movq	%rax, -80(%rbp)         ## 8-byte Spill
	jmp	LBB88_7
LBB88_7:                                ##   in Loop: Header=BB88_1 Depth=1
	movq	-48(%rbp), %rsi
Ltmp531:
	movq	-80(%rbp), %rdi         ## 8-byte Reload
	callq	__ZNSt3__1lsIcNS_11char_traitsIcEENS_9allocatorIcEEEERNS_13basic_ostreamIT_T0_EES9_RKNS_12basic_stringIS6_S7_T1_EE
Ltmp532:
	movq	%rax, -88(%rbp)         ## 8-byte Spill
	jmp	LBB88_8
LBB88_8:                                ##   in Loop: Header=BB88_1 Depth=1
Ltmp533:
	leaq	L_.str.98(%rip), %rsi
	movq	-88(%rbp), %rdi         ## 8-byte Reload
	callq	__ZNSt3__1lsINS_11char_traitsIcEEEERNS_13basic_ostreamIcT_EES6_PKc
Ltmp534:
	movq	%rax, -96(%rbp)         ## 8-byte Spill
	jmp	LBB88_9
LBB88_9:                                ##   in Loop: Header=BB88_1 Depth=1
	movq	-72(%rbp), %rax
	movq	(%rax), %rcx
	movq	16(%rcx), %rcx
	movq	%rax, %rdi
	callq	*%rcx
Ltmp535:
	movq	-96(%rbp), %rdi         ## 8-byte Reload
	movq	%rax, %rsi
	callq	__ZNSt3__1lsINS_11char_traitsIcEEEERNS_13basic_ostreamIcT_EES6_PKc
Ltmp536:
	movq	%rax, -104(%rbp)        ## 8-byte Spill
	jmp	LBB88_10
LBB88_10:                               ##   in Loop: Header=BB88_1 Depth=1
Ltmp537:
	leaq	L_.str.58(%rip), %rsi
	movq	-104(%rbp), %rdi        ## 8-byte Reload
	callq	__ZNSt3__1lsINS_11char_traitsIcEEEERNS_13basic_ostreamIcT_EES6_PKc
Ltmp538:
	jmp	LBB88_11
LBB88_11:                               ##   in Loop: Header=BB88_1 Depth=1
	callq	___cxa_end_catch
LBB88_12:                               ##   in Loop: Header=BB88_1 Depth=1
	jmp	LBB88_13
LBB88_13:                               ##   in Loop: Header=BB88_1 Depth=1
	leaq	-32(%rbp), %rdi
	callq	__ZNSt3__111__wrap_iterIPKNS_12basic_stringIcNS_11char_traitsIcEENS_9allocatorIcEEEEEppEv
	jmp	LBB88_1
LBB88_14:
Ltmp539:
                                        ## kill: def $edx killed $edx killed $rdx
	movq	%rax, -56(%rbp)
	movl	%edx, -60(%rbp)
Ltmp540:
	callq	___cxa_end_catch
Ltmp541:
	jmp	LBB88_15
LBB88_15:
	jmp	LBB88_17
LBB88_16:
	addq	$112, %rsp
	popq	%rbp
	retq
LBB88_17:
	movq	-56(%rbp), %rdi
	callq	__Unwind_Resume
	ud2
LBB88_18:
Ltmp542:
	movq	%rax, %rdi
	movq	%rdx, -112(%rbp)        ## 8-byte Spill
	callq	___clang_call_terminate
Lfunc_end17:
	.cfi_endproc
	.section	__TEXT,__gcc_except_tab
	.p2align	2
GCC_except_table88:
Lexception17:
	.byte	255                     ## @LPStart Encoding = omit
	.byte	155                     ## @TType Encoding = indirect pcrel sdata4
	.uleb128 Lttbase3-Lttbaseref3
Lttbaseref3:
	.byte	1                       ## Call site Encoding = uleb128
	.uleb128 Lcst_end17-Lcst_begin17
Lcst_begin17:
	.uleb128 Lfunc_begin17-Lfunc_begin17 ## >> Call Site 1 <<
	.uleb128 Ltmp526-Lfunc_begin17  ##   Call between Lfunc_begin17 and Ltmp526
	.byte	0                       ##     has no landing pad
	.byte	0                       ##   On action: cleanup
	.uleb128 Ltmp526-Lfunc_begin17  ## >> Call Site 2 <<
	.uleb128 Ltmp527-Ltmp526        ##   Call between Ltmp526 and Ltmp527
	.uleb128 Ltmp528-Lfunc_begin17  ##     jumps to Ltmp528
	.byte	1                       ##   On action: 1
	.uleb128 Ltmp527-Lfunc_begin17  ## >> Call Site 3 <<
	.uleb128 Ltmp529-Ltmp527        ##   Call between Ltmp527 and Ltmp529
	.byte	0                       ##     has no landing pad
	.byte	0                       ##   On action: cleanup
	.uleb128 Ltmp529-Lfunc_begin17  ## >> Call Site 4 <<
	.uleb128 Ltmp534-Ltmp529        ##   Call between Ltmp529 and Ltmp534
	.uleb128 Ltmp539-Lfunc_begin17  ##     jumps to Ltmp539
	.byte	0                       ##   On action: cleanup
	.uleb128 Ltmp534-Lfunc_begin17  ## >> Call Site 5 <<
	.uleb128 Ltmp535-Ltmp534        ##   Call between Ltmp534 and Ltmp535
	.byte	0                       ##     has no landing pad
	.byte	0                       ##   On action: cleanup
	.uleb128 Ltmp535-Lfunc_begin17  ## >> Call Site 6 <<
	.uleb128 Ltmp538-Ltmp535        ##   Call between Ltmp535 and Ltmp538
	.uleb128 Ltmp539-Lfunc_begin17  ##     jumps to Ltmp539
	.byte	0                       ##   On action: cleanup
	.uleb128 Ltmp538-Lfunc_begin17  ## >> Call Site 7 <<
	.uleb128 Ltmp540-Ltmp538        ##   Call between Ltmp538 and Ltmp540
	.byte	0                       ##     has no landing pad
	.byte	0                       ##   On action: cleanup
	.uleb128 Ltmp540-Lfunc_begin17  ## >> Call Site 8 <<
	.uleb128 Ltmp541-Ltmp540        ##   Call between Ltmp540 and Ltmp541
	.uleb128 Ltmp542-Lfunc_begin17  ##     jumps to Ltmp542
	.byte	3                       ##   On action: 2
	.uleb128 Ltmp541-Lfunc_begin17  ## >> Call Site 9 <<
	.uleb128 Lfunc_end17-Ltmp541    ##   Call between Ltmp541 and Lfunc_end17
	.byte	0                       ##     has no landing pad
	.byte	0                       ##   On action: cleanup
Lcst_end17:
	.byte	1                       ## >> Action Record 1 <<
                                        ##   Catch TypeInfo 1
	.byte	0                       ##   No further actions
	.byte	2                       ## >> Action Record 2 <<
                                        ##   Catch TypeInfo 2
	.byte	0                       ##   No further actions
	.p2align	2
                                        ## >> Catch TypeInfos <<
	.long	0                       ## TypeInfo 2
	.long	__ZTISt9exception@GOTPCREL+4 ## TypeInfo 1
Lttbase3:
	.p2align	2
                                        ## -- End function
	.section	__TEXT,__text,regular,pure_instructions
